(dp1
S'cussed'
p2
S'neg'
p3
sS'foul'
p4
g3
sS'mirage'
p5
g3
sS'aggression'
p6
g3
sS'chatter'
p7
g3
sS'scold'
p8
g3
sS'originality'
p9
S'pos'
p10
sS'superficially'
p11
g3
sS'outwit'
p12
g10
sS'lorn'
p13
g3
sS'fatcat'
p14
g3
sS'sputter'
p15
g3
sS'immature'
p16
g3
sS'sinking'
p17
g3
sS'slothful'
p18
g3
sS'befoul'
p19
g3
sS'tantalizing'
p20
g10
sS'irksomely'
p21
g3
sS'disturb'
p22
g3
sS'prize'
p23
g10
sS'brutish'
p24
g3
sS'stereotypical'
p25
g3
sS'steadfastness'
p26
g10
sS'non-violent'
p27
g10
sS'inevitably'
p28
g3
sS'pamperedly'
p29
g10
sS'elegant'
p30
g10
sS'rusty'
p31
g3
sS'valiant'
p32
g10
sS'rusts'
p33
g3
sS'loathing'
p34
g3
sS'haughtily'
p35
g3
sS'errors'
p36
g3
sS'ruthless'
p37
g3
sS'decry'
p38
g3
sS'resilient'
p39
g10
sS'succumb'
p40
g3
sS'insinuation'
p41
g3
sS'hero'
p42
g10
sS'jubilantly'
p43
g10
sS'unseemly'
p44
g3
sS'fissures'
p45
g3
sS'shriek'
p46
g3
sS'bullyingly'
p47
g3
sS'doldrums'
p48
g3
sS'revengefully'
p49
g3
sS'uplifting'
p50
g10
sS'unwillingness'
p51
g3
sS'oasis'
p52
g10
sS'controversy'
p53
g3
sS'unwanted'
p54
g3
sS'spotty'
p55
g3
sS'criticism'
p56
g3
sS'golden'
p57
g10
sS'mawkishness'
p58
g3
sS'stern'
p59
g3
sS'scarier'
p60
g3
sS'cheating'
p61
g3
sS'catchy'
p62
g10
sS'insecurity'
p63
g3
sS'impartiality'
p64
g10
sS'exhort'
p65
g3
sS'glimmering'
p66
g10
sS'cannibal'
p67
g3
sS'strike'
p68
g3
sS'imperialist'
p69
g3
sS'holy'
p70
g10
sS'detracts'
p71
g3
sS'mesmerize'
p72
g10
sS'hurt'
p73
g3
sS'exuberantly'
p74
g10
sS'exhorbitant'
p75
g3
sS'irksome'
p76
g3
sS'aggrivation'
p77
g3
sS'accomplishment'
p78
g10
sS'invaluablely'
p79
g10
sS'wane'
p80
g3
sS'unjust'
p81
g3
sS'diappointed'
p82
g3
sS'malign'
p83
g3
sS'dishearteningly'
p84
g3
sS'reprove'
p85
g3
sS'preferably'
p86
g10
sS'complaining'
p87
g3
sS'damage'
p88
g3
sS'hot'
p89
g10
sS'vociferous'
p90
g3
sS'preferable'
p91
g10
sS'shirker'
p92
g3
sS'dignified'
p93
g10
sS'fanaticism'
p94
g3
sS'beauty'
p95
g10
sS'despondent'
p96
g3
sS'wrong'
p97
g3
sS'unselfish'
p98
g10
sS'extortion'
p99
g3
sS'rejoicingly'
p100
g10
sS'effective'
p101
g10
sS'scourge'
p102
g3
sS'wins'
p103
g10
sS'revolt'
p104
g3
sS'fictional'
p105
g3
sS'sickening'
p106
g3
sS'unlawfully'
p107
g3
sS'restriction'
p108
g3
sS'soothingly'
p109
g10
sS'fidelity'
p110
g10
sS'wrought'
p111
g3
sS'admirably'
p112
g10
sS'wickedly'
p113
g3
sS'unforeseen'
p114
g3
sS'fib'
p115
g3
sS'insubstantial'
p116
g3
sS'admirable'
p117
g10
sS'easier'
p118
g10
sS'undercut'
p119
g3
sS'glorify'
p120
g10
sS'grievous'
p121
g3
sS'ached'
p122
g3
sS'enrich'
p123
g10
sS'top-quality'
p124
g10
sS'renunciation'
p125
g3
sS'aspersions'
p126
g3
sS'interrupt'
p127
g3
sS'ebullient'
p128
g10
sS'merrily'
p129
g10
sS'dumps'
p130
g3
sS'spotless'
p131
g10
sS'averse'
p132
g3
sS'addicted'
p133
g3
sS'impossible'
p134
g3
sS'ameliorate'
p135
g10
sS'coupists'
p136
g3
sS'misfortune'
p137
g3
sS'touts'
p138
g3
sS'indiscretion'
p139
g3
sS'encourage'
p140
g10
sS'outburst'
p141
g3
sS'disinterested'
p142
g3
sS'fugitive'
p143
g3
sS'obstructing'
p144
g3
sS'cornerstone'
p145
g10
sS'counter-attacks'
p146
g10
sS'undisputably'
p147
g10
sS'sickeningly'
p148
g3
sS'rumple'
p149
g3
sS'disturbed'
p150
g3
sS'speedy'
p151
g10
sS'tempting'
p152
g10
sS'ineffectively'
p153
g3
sS'mendacity'
p154
g3
sS'undisputable'
p155
g10
sS'relentlessness'
p156
g3
sS'downheartedly'
p157
g3
sS'angelic'
p158
g10
sS'playfully'
p159
g10
sS'clamorous'
p160
g3
sS'screw-up'
p161
g3
sS'clarity'
p162
g10
sS'declaim'
p163
g3
sS'traumatize'
p164
g3
sS'tired'
p165
g3
sS'outstandingly'
p166
g10
sS'master'
p167
g10
sS'incognizant'
p168
g3
sS'bitter'
p169
g3
sS'collapse'
p170
g3
sS'enthrall'
p171
g10
sS'wisdom'
p172
g10
sS'positively'
p173
g10
sS'peril'
p174
g3
sS'exultation'
p175
g10
sS'coward'
p176
g3
sS'idle'
p177
g3
sS'acclaim'
p178
g10
sS'willingness'
p179
g10
sS'meddlesome'
p180
g3
sS'antagonistic'
p181
g3
sS'wholesome'
p182
g10
sS'uncouth'
p183
g3
sS'gripe'
p184
g3
sS'eagerly'
p185
g10
sS'recommended'
p186
g10
sS'defiantly'
p187
g3
sS'responsibly'
p188
g10
sS'worthlessness'
p189
g3
sS'imprudent'
p190
g3
sS'disdainfully'
p191
g3
sS'thrilled'
p192
g10
sS'object'
p193
g3
sS'vexing'
p194
g3
sS'simplify'
p195
g10
sS'affirmation'
p196
g10
sS'addict'
p197
g3
sS'reverence'
p198
g10
sS'conceded'
p199
g3
sS'fluster'
p200
g3
sS'drought'
p201
g3
sS'morality'
p202
g10
sS'regreted'
p203
g3
sS'wreck'
p204
g3
sS'nettle'
p205
g3
sS'disaffect'
p206
g3
sS'consummate'
p207
g10
sS'detriment'
p208
g3
sS'pretty'
p209
g10
sS'scream'
p210
g3
sS'incomplete'
p211
g3
sS'marvel'
p212
g10
sS'prik'
p213
g3
sS'bomb'
p214
g3
sS'heckles'
p215
g3
sS'undue'
p216
g3
sS'lethal'
p217
g3
sS'heckled'
p218
g3
sS'cheaply'
p219
g3
sS'die-hard'
p220
g3
sS'quaint'
p221
g10
sS'unskilled'
p222
g3
sS'bust'
p223
g3
sS'bliss'
p224
g10
sS'rich'
p225
g10
sS'foolishly'
p226
g3
sS'emphatically'
p227
g3
sS'irritably'
p228
g3
sS'denounce'
p229
g3
sS'foremost'
p230
g10
sS'tenaciously'
p231
g10
sS'relish'
p232
g10
sS'tawdry'
p233
g3
sS'spilling'
p234
g3
sS'nicely'
p235
g10
sS'altruistically'
p236
g10
sS'openly'
p237
g10
sS'stunningly'
p238
g10
sS'dismissively'
p239
g3
sS'disaster'
p240
g3
sS'fair'
p241
g10
sS'gallingly'
p242
g3
sS'over-valuation'
p243
g3
sS'unexpectedly'
p244
g3
sS'fail'
p245
g3
sS'resigned'
p246
g3
sS'best'
p247
g10
sS'solicitude'
p248
g3
sS'irk'
p249
g3
sS'scorn'
p250
g3
sS'ire'
p251
g3
sS'skimpy'
p252
g3
sS'indecisive'
p253
g3
sS'smelled'
p254
g3
sS'inextricable'
p255
g3
sS'inextricably'
p256
g3
sS'defiance'
p257
g3
sS'downgrade'
p258
g3
sS'dexterously'
p259
g10
sS'debt'
p260
g3
sS'pity'
p261
g3
sS'violators'
p262
g3
sS'disdain'
p263
g3
sS'fallacious'
p264
g3
sS'incense'
p265
g3
sS'profuse'
p266
g10
sS'dents'
p267
g3
sS'fearlessly'
p268
g10
sS'obscenity'
p269
g3
sS'mortified'
p270
g3
sS'irresponsible'
p271
g3
sS'matte'
p272
g3
sS'irresponsibly'
p273
g3
sS'humming'
p274
g3
sS'truthful'
p275
g10
sS'penalize'
p276
g3
sS'tin-y'
p277
g3
sS'bewilder'
p278
g3
sS'disgracefully'
p279
g3
sS'bothers'
p280
g3
sS'bedlamite'
p281
g3
sS'privilege'
p282
g10
sS'assult'
p283
g3
sS'adroitly'
p284
g10
sS'incompetent'
p285
g3
sS'obese'
p286
g3
sS'recomend'
p287
g10
sS'irragularity'
p288
g3
sS'pandering'
p289
g3
sS'dote'
p290
g10
sS'doubts'
p291
g3
sS'worked'
p292
g10
sS'haters'
p293
g3
sS'cunt'
p294
g3
sS'chill'
p295
g3
sS'gritty'
p296
g3
sS'congratulation'
p297
g10
sS'manipulators'
p298
g3
sS'taunts'
p299
g3
sS'upscale'
p300
g10
sS'smoothest'
p301
g10
sS'fractiously'
p302
g3
sS'trusted'
p303
g10
sS'damaged'
p304
g3
sS'severity'
p305
g3
sS'spews'
p306
g3
sS'haphazard'
p307
g3
sS'drop-out'
p308
g3
sS'split'
p309
g3
sS'emphatic'
p310
g3
sS'fairly'
p311
g10
sS'effortlessly'
p312
g10
sS'ill-usage'
p313
g3
sS'tops'
p314
g10
sS'dexterous'
p315
g10
sS'haggard'
p316
g3
sS'intrusion'
p317
g3
sS'askance'
p318
g3
sS'cannibalize'
p319
g3
sS'fanatically'
p320
g3
sS'subpoena'
p321
g3
sS'solace'
p322
g10
sS'forsaken'
p323
g3
sS'beset'
p324
g3
sS'ungovernable'
p325
g3
sS'plight'
p326
g3
sS'amusingly'
p327
g10
sS'ease'
p328
g10
sS'easy'
p329
g10
sS'prison'
p330
g3
sS'falter'
p331
g3
sS'irretrievable'
p332
g3
sS'survival'
p333
g10
sS'disagreement'
p334
g3
sS'inaptitude'
p335
g3
sS'firmer'
p336
g10
sS'unequivocally'
p337
g10
sS'harmoniously'
p338
g10
sS'excitedness'
p339
g10
sS'bonkers'
p340
g3
sS'effusion'
p341
g10
sS'beneficial'
p342
g10
sS'right'
p343
g10
sS'macabre'
p344
g3
sS'harassment'
p345
g3
sS'creep'
p346
g3
sS'enemies'
p347
g3
sS'inhuman'
p348
g3
sS'creative'
p349
g10
sS'repression'
p350
g3
sS'foe'
p351
g3
sS'polluter'
p352
g3
sS'defensive'
p353
g3
sS'losing'
p354
g3
sS'memorable'
p355
g10
sS'hardliners'
p356
g3
sS'restlessness'
p357
g3
sS'scandels'
p358
g3
sS'lackey'
p359
g3
sS'grievously'
p360
g3
sS'anomalous'
p361
g3
sS'fat-cat'
p362
g3
sS'over-balanced'
p363
g3
sS'despair'
p364
g3
sS'best-selling'
p365
g10
sS'lacked'
p366
g3
sS'meddle'
p367
g3
sS'sob'
p368
g3
sS'deploringly'
p369
g3
sS'infraction'
p370
g3
sS'undermining'
p371
g3
sS'despised'
p372
g3
sS'frazzled'
p373
g3
sS'suffice'
p374
g10
sS'raped'
p375
g3
sS'hothead'
p376
g3
sS'overshadow'
p377
g3
sS'happy'
p378
g10
sS'insurrection'
p379
g3
sS'fascination'
p380
g10
sS'gripes'
p381
g3
sS'shrilly'
p382
g3
sS'talents'
p383
g10
sS'understandable'
p384
g10
sS'straggle'
p385
g3
sS'congratulations'
p386
g10
sS'misinform'
p387
g3
sS'break-up'
p388
g3
sS'pest'
p389
g3
sS'torturing'
p390
g3
sS'calumniation'
p391
g3
sS'discountenance'
p392
g3
sS'disgrace'
p393
g3
sS'unnerve'
p394
g3
sS'proven'
p395
g10
sS'crumble'
p396
g3
sS'soothe'
p397
g10
sS'proves'
p398
g10
sS'protested'
p399
g3
sS'leer'
p400
g3
sS'heartbreakingly'
p401
g3
sS'slammin'
p402
g10
sS'successful'
p403
g10
sS'desecrate'
p404
g3
sS'indigent'
p405
g3
sS'ambitious'
p406
g10
sS'superfluous'
p407
g3
sS'mudslinger'
p408
g3
sS'disastrously'
p409
g3
sS'exagerate'
p410
g3
sS'geezer'
p411
g3
sS'paralize'
p412
g3
sS'comely'
p413
g10
sS'smelling'
p414
g3
sS'persecution'
p415
g3
sS'anti-white'
p416
g3
sS'congested'
p417
g3
sS'expropriate'
p418
g3
sS'quandary'
p419
g3
sS'subvert'
p420
g3
sS'well-rounded'
p421
g10
sS'irrecoverably'
p422
g3
sS'disrespectable'
p423
g3
sS'avalanche'
p424
g3
sS'shimmy'
p425
g3
sS'jarring'
p426
g3
sS'irrecoverable'
p427
g3
sS'uneven'
p428
g3
sS'obsessively'
p429
g3
sS'indolent'
p430
g3
sS'vex'
p431
g3
sS'oversight'
p432
g3
sS'persevere'
p433
g10
sS'jerk'
p434
g3
sS'cheap'
p435
g3
sS'navigable'
p436
g10
sS'cataclysmic'
p437
g3
sS'gloomy'
p438
g3
sS'mourn'
p439
g3
sS'fatigued'
p440
g3
sS'engrossing'
p441
g10
sS'dismally'
p442
g3
sS'uncomfy'
p443
g3
sS'famed'
p444
g10
sS'spiritual'
p445
g10
sS'insignificant'
p446
g3
sS'adulation'
p447
g10
sS'patient'
p448
g10
sS'kindliness'
p449
g10
sS'backwood'
p450
g3
sS'cleanliness'
p451
g10
sS'jeopardy'
p452
g3
sS'celebrated'
p453
g10
sS'hairloss'
p454
g3
sS'freaks'
p455
g3
sS'falling'
p456
g3
sS'boost'
p457
g10
sS'irresolvable'
p458
g3
sS'abscond'
p459
g3
sS'dwindling'
p460
g3
sS'momentous'
p461
g10
sS'molestation'
p462
g3
sS'shamelessness'
p463
g3
sS'redemption'
p464
g10
sS'restrictive'
p465
g3
sS'brilliant'
p466
g10
sS'accomplished'
p467
g10
sS'ineffective'
p468
g3
sS'ill-fated'
p469
g3
sS'reclaim'
p470
g10
sS'love'
p471
g10
sS'prefer'
p472
g10
sS'logical'
p473
g10
sS'bloody'
p474
g3
sS'marvelous'
p475
g10
sS'betraying'
p476
g3
sS'ironical'
p477
g3
sS'fake'
p478
g3
sS'flagging'
p479
g3
sS'flareup'
p480
g3
sS'positive'
p481
g10
sS'angry'
p482
g3
sS'cherished'
p483
g10
sS'un-viewable'
p484
g3
sS'wicked'
p485
g3
sS'scratched'
p486
g3
sS'afford'
p487
g10
sS'ignorant'
p488
g3
sS'degrade'
p489
g3
sS'scratches'
p490
g3
sS'degenerately'
p491
g3
sS'overloaded'
p492
g3
sS'fatalistic'
p493
g3
sS'instable'
p494
g3
sS'impasse'
p495
g3
sS'harmonious'
p496
g10
sS'toll-free'
p497
g10
sS'awesome'
p498
g10
sS'intransigent'
p499
g3
sS'admirer'
p500
g10
sS'stole'
p501
g3
sS'calumnious'
p502
g3
sS'vainly'
p503
g3
sS'convienient'
p504
g10
sS'unforgettable'
p505
g10
sS'quarrellously'
p506
g3
sS'convincingly'
p507
g10
sS'improving'
p508
g10
sS'suck'
p509
g3
sS'filthy'
p510
g3
sS'shockingly'
p511
g3
sS'brainless'
p512
g3
sS'egotistical'
p513
g3
sS'disagreeable'
p514
g3
sS'stress'
p515
g3
sS'regressive'
p516
g3
sS'darkened'
p517
g3
sS'swollen'
p518
g3
sS'dreamland'
p519
g10
sS'disagreeably'
p520
g3
sS'drunken'
p521
g3
sS'innocuous'
p522
g10
sS'noteworthy'
p523
g10
sS'unacceptable'
p524
g3
sS'unacceptably'
p525
g3
sS'horrify'
p526
g3
sS'thoughtfulness'
p527
g10
sS'avid'
p528
g10
sS'sarcastically'
p529
g3
sS'despotic'
p530
g3
sS'lackluster'
p531
g3
sS'cleanest'
p532
g10
sS'troubles'
p533
g3
sS'amazing'
p534
g10
sS'disconcertingly'
p535
g3
sS'attraction'
p536
g10
sS'suspicion'
p537
g3
sS'celebrate'
p538
g10
sS'antipathy'
p539
g3
sS'oversize'
p540
g3
sS'troubled'
p541
g3
sS'instantly'
p542
g10
sS'smarter'
p543
g10
sS'illogically'
p544
g3
sS'bashful'
p545
g3
sS'courageously'
p546
g10
sS'revert'
p547
g3
sS'phenomenally'
p548
g10
sS'instability'
p549
g3
sS'revere'
p550
g10
sS'raptureously'
p551
g10
sS'edify'
p552
g10
sS'crushing'
p553
g3
sS'irritant'
p554
g3
sS'breakthrough'
p555
g10
sS'prudently'
p556
g10
sS'giddy'
p557
g3
sS'astray'
p558
g3
sS'boundless'
p559
g10
sS'trauma'
p560
g3
sS'timidness'
p561
g3
sS'dumbfound'
p562
g3
sS'disintegrated'
p563
g3
sS'siege'
p564
g3
sS'palatial'
p565
g10
sS'loyalty'
p566
g10
sS'disrespect'
p567
g3
sS'disintegrates'
p568
g3
sS'bumps'
p569
g3
sS'complicated'
p570
g3
sS'matchless'
p571
g10
sS'plea'
p572
g3
sS'bumpy'
p573
g3
sS'dissonant'
p574
g3
sS'scarred'
p575
g3
sS'prefered'
p576
g10
sS'heroize'
p577
g10
sS'imposers'
p578
g3
sS'punk'
p579
g3
sS'downsides'
p580
g3
sS'impure'
p581
g3
sS'undesirable'
p582
g3
sS'bothersome'
p583
g3
sS'neglect'
p584
g3
sS'puny'
p585
g3
sS'top-heavy'
p586
g3
sS'punishable'
p587
g3
sS'anti-'
p588
g3
sS'languish'
p589
g3
sS'wrath'
p590
g3
sS'ill-favored'
p591
g3
sS'shiver'
p592
g3
sS'oversimplified'
p593
g3
sS'proving'
p594
g10
sS'ridiculous'
p595
g3
sS'err-free'
p596
g10
sS'fooled'
p597
g3
sS'impractical'
p598
g3
sS'heavyhearted'
p599
g3
sS'rival'
p600
g3
sS'stammer'
p601
g3
sS'individualized'
p602
g10
sS'damned'
p603
g3
sS'proactive'
p604
g10
sS'disasterous'
p605
g3
sS'illness'
p606
g3
sS'nicer'
p607
g10
sS'sumptuous'
p608
g10
sS'sag'
p609
g3
sS'sad'
p610
g3
sS'picketing'
p611
g3
sS'lurking'
p612
g3
sS'bewilderingly'
p613
g3
sS'sap'
p614
g3
sS'uproarously'
p615
g3
sS'perplex'
p616
g3
sS'sanctimonious'
p617
g3
sS'destroy'
p618
g3
sS'hedonistic'
p619
g3
sS'blinding'
p620
g3
sS'pimple'
p621
g3
sS'ironically'
p622
g3
sS'time-honored'
p623
g10
sS'spewing'
p624
g3
sS'unencumbered'
p625
g10
sS'energize'
p626
g10
sS'touchy'
p627
g3
sS'infections'
p628
g3
sS'defeating'
p629
g10
sS'jitters'
p630
g3
sS'guiltily'
p631
g3
sS'jittery'
p632
g3
sS'hestitant'
p633
g3
sS'intoxicate'
p634
g3
sS'unassailable'
p635
g10
sS'infuriate'
p636
g3
sS'friction'
p637
g3
sS'elan'
p638
g10
sS'inconsistent'
p639
g3
sS'scarce'
p640
g3
sS'aggressive'
p641
g3
sS'calumnies'
p642
g3
sS'slow'
p643
g3
sS'unkind'
p644
g3
sS'liberation'
p645
g10
sS'slog'
p646
g3
sS'outrage'
p647
g3
sS'dispute'
p648
g3
sS'godlike'
p649
g10
sS'graceless'
p650
g3
sS'infallibly'
p651
g10
sS'revolutionized'
p652
g10
sS'freezing'
p653
g3
sS'simplistic'
p654
g3
sS'infallible'
p655
g10
sS'revolutionizes'
p656
g10
sS'maniacal'
p657
g3
sS'unviewable'
p658
g3
sS'keenly'
p659
g10
sS'absurdly'
p660
g3
sS'worried'
p661
g3
sS'liable'
p662
g3
sS'worries'
p663
g3
sS'worrier'
p664
g3
sS'disparage'
p665
g3
sS'downfallen'
p666
g3
sS'ghastly'
p667
g3
sS'enthralled'
p668
g10
sS'noisier'
p669
g3
sS'audaciously'
p670
g3
sS'gangster'
p671
g3
sS'inequalities'
p672
g3
sS'alarming'
p673
g3
sS'refreshed'
p674
g10
sS'mope'
p675
g3
sS'enjoys'
p676
g10
sS'forsake'
p677
g3
sS'pitiless'
p678
g3
sS'inappropriately'
p679
g3
sS'checkered'
p680
g3
sS'useful'
p681
g10
sS'triumphal'
p682
g10
sS'gratefully'
p683
g10
sS'jovial'
p684
g10
sS'awards'
p685
g10
sS'menacing'
p686
g3
sS'undermine'
p687
g3
sS'quack'
p688
g3
sS'farcical'
p689
g3
sS'disrespectfully'
p690
g3
sS'ineptly'
p691
g3
sS'belie'
p692
g3
sS'calumniate'
p693
g3
sS'panick'
p694
g3
sS'extravagantly'
p695
g3
sS'gaiety'
p696
g10
sS'concede'
p697
g3
sS'needlessly'
p698
g3
sS'diatribe'
p699
g3
sS'vomits'
p700
g3
sS'dropouts'
p701
g3
sS'profane'
p702
g3
sS'pretence'
p703
g3
sS'straighten'
p704
g10
sS'flicering'
p705
g3
sS'stupidest'
p706
g3
sS'world-famous'
p707
g10
sS'twists'
p708
g3
sS'reviled'
p709
g3
sS'dubious'
p710
g3
sS'blah'
p711
g3
sS'blab'
p712
g3
sS'fame'
p713
g10
sS'debilitating'
p714
g3
sS'mobster'
p715
g3
sS'underestimate'
p716
g3
sS'war-like'
p717
g3
sS'breakdown'
p718
g3
sS'maturely'
p719
g10
sS'infuriatingly'
p720
g3
sS'deft'
p721
g10
sS'defy'
p722
g3
sS'domineering'
p723
g3
sS'entanglement'
p724
g3
sS'cheery'
p725
g10
sS'awesomeness'
p726
g10
sS'undefined'
p727
g3
sS'idiotically'
p728
g3
sS'staunchness'
p729
g10
sS'exceled'
p730
g10
sS'grumpy'
p731
g3
sS'convient'
p732
g10
sS'morons'
p733
g3
sS'disconcert'
p734
g3
sS'slime'
p735
g3
sS'fateful'
p736
g3
sS'futilely'
p737
g3
sS'inaudible'
p738
g3
sS'deceiving'
p739
g3
sS'pestilent'
p740
g3
sS'overthrow'
p741
g3
sS'joyful'
p742
g10
sS'dark'
p743
g3
sS'snarl'
p744
g3
sS'snare'
p745
g3
sS'vague'
p746
g3
sS'bravery'
p747
g10
sS'sensational'
p748
g10
sS'plusses'
p749
g10
sS'stranger'
p750
g3
sS'expunge'
p751
g3
sS'intolerablely'
p752
g3
sS'superiority'
p753
g10
sS'cravenly'
p754
g3
sS'obstruct'
p755
g3
sS'satisfactory'
p756
g10
sS'debilitate'
p757
g3
sS'asperse'
p758
g3
sS'demeaning'
p759
g3
sS'divine'
p760
g10
sS'wrongly'
p761
g3
sS'excelent'
p762
g10
sS'scandals'
p763
g3
sS'beckons'
p764
g10
sS'corrosive'
p765
g3
sS'unsuccessfully'
p766
g3
sS'biased'
p767
g3
sS'squabble'
p768
g3
sS'zest'
p769
g10
sS'intimate'
p770
g10
sS'poise'
p771
g10
sS'imminence'
p772
g3
sS'disparaging'
p773
g3
sS'audaciousness'
p774
g3
sS'biases'
p775
g3
sS'exasperating'
p776
g3
sS'joyfully'
p777
g10
sS'favorite'
p778
g10
sS'masterpieces'
p779
g10
sS'nastily'
p780
g3
sS'foulness'
p781
g3
sS'perturbed'
p782
g3
sS'chivalry'
p783
g10
sS'fervently'
p784
g10
sS'burning'
p785
g3
sS'flawed'
p786
g3
sS'rectification'
p787
g10
sS'inculcate'
p788
g3
sS'lively'
p789
g10
sS'deceivers'
p790
g3
sS'betrays'
p791
g3
sS'mindless'
p792
g3
sS'futile'
p793
g3
sS'fastidious'
p794
g3
sS'irrationals'
p795
g3
sS'antiquated'
p796
g3
sS'impedance'
p797
g3
sS'handsome'
p798
g10
sS'abused'
p799
g3
sS'darken'
p800
g3
sS'rage'
p801
g3
sS'flirt'
p802
g3
sS'treasure'
p803
g10
sS'dirty'
p804
g3
sS'reprimand'
p805
g3
sS'flatteringly'
p806
g10
sS'rust'
p807
g3
sS'dirts'
p808
g3
sS'fright'
p809
g3
sS'invigorating'
p810
g10
sS'exhausted'
p811
g3
sS'stealing'
p812
g3
sS'ax'
p813
g3
sS'tranquil'
p814
g10
sS'appalling'
p815
g3
sS'first-class'
p816
g10
sS'ideally'
p817
g10
sS'abolish'
p818
g3
sS'unparalleled'
p819
g10
sS'friggin'
p820
g3
sS'incomprehensible'
p821
g3
sS'disgraceful'
p822
g3
sS'refunded'
p823
g10
sS'a+'
p824
g10
sS'damnably'
p825
g3
sS'dented'
p826
g3
sS'damnable'
p827
g3
sS'midget'
p828
g3
sS'imminently'
p829
g3
sS'misleadingly'
p830
g3
sS'vivacious'
p831
g10
sS'disdained'
p832
g3
sS'snagged'
p833
g3
sS'indiscriminating'
p834
g3
sS'judders'
p835
g3
sS'enrichment'
p836
g10
sS'fraudulent'
p837
g3
sS'remarkable'
p838
g10
sS'beware'
p839
g3
sS'weariness'
p840
g3
sS'fairness'
p841
g10
sS'improperly'
p842
g3
sS'smile'
p843
g10
sS'degeneration'
p844
g3
sS'puzzled'
p845
g3
sS'discrepant'
p846
g3
sS'irksomeness'
p847
g3
sS'manageable'
p848
g10
sS'marvellous'
p849
g10
sS'ingratitude'
p850
g3
sS'insufficiently'
p851
g3
sS'dodgey'
p852
g3
sS'desertion'
p853
g3
sS'abuses'
p854
g3
sS'senselessly'
p855
g3
sS'quicker'
p856
g10
sS'partiality'
p857
g3
sS'dizzingly'
p858
g3
sS'lechery'
p859
g3
sS'destitute'
p860
g3
sS'handicapped'
p861
g3
sS'bumpping'
p862
g3
sS'poisonous'
p863
g3
sS'undecided'
p864
g3
sS'empower'
p865
g10
sS'replaceable'
p866
g10
sS'indecision'
p867
g3
sS'vomiting'
p868
g3
sS'deceitfully'
p869
g3
sS'buzzing'
p870
g3
sS'outdone'
p871
g10
sS'mudslinging'
p872
g3
sS'examplary'
p873
g10
sS'brutal'
p874
g3
sS'skepticism'
p875
g3
sS'sweetness'
p876
g10
sS'calumniously'
p877
g3
sS'unsatisfactory'
p878
g3
sS'traumatized'
p879
g3
sS'conspiratorial'
p880
g3
sS'decrement'
p881
g3
sS'coercion'
p882
g3
sS'inadequately'
p883
g3
sS'enliven'
p884
g10
sS'gorgeous'
p885
g10
sS'spoils'
p886
g3
sS'one-sided'
p887
g3
sS'spoon-fed'
p888
g3
sS'objections'
p889
g3
sS'doom'
p890
g3
sS'negativity'
p891
g3
sS'fatal'
p892
g3
sS'long-winded'
p893
g3
sS'scramble'
p894
g3
sS'beautiful'
p895
g10
sS'scam'
p896
g3
sS'life-threatening'
p897
g3
sS'overstates'
p898
g3
sS'dislikes'
p899
g3
sS'unbiased'
p900
g10
sS'scar'
p901
g3
sS'condemn'
p902
g3
sS'dazzle'
p903
g10
sS'disconsolate'
p904
g3
sS'glowing'
p905
g10
sS'cajole'
p906
g10
sS'wiles'
p907
g3
sS'confounding'
p908
g3
sS'lanky'
p909
g3
sS'tetchy'
p910
g3
sS'second-tier'
p911
g3
sS'unsound'
p912
g3
sS'authentic'
p913
g10
sS'flutter'
p914
g10
sS'misapprehend'
p915
g3
sS'malevolent'
p916
g3
sS'refuse'
p917
g3
sS'impermissible'
p918
g3
sS'helplessly'
p919
g3
sS'laggy'
p920
g3
sS'incessantly'
p921
g3
sS'peppy'
p922
g10
sS'distortion'
p923
g3
sS'dawdle'
p924
g3
sS'sugarcoated'
p925
g3
sS'smiling'
p926
g10
sS'irreformable'
p927
g3
sS'zippy'
p928
g10
sS'tantalizingly'
p929
g10
sS'blurring'
p930
g3
sS'symptoms'
p931
g3
sS'plotters'
p932
g3
sS'ruining'
p933
g3
sS'nifty'
p934
g10
sS'tentatively'
p935
g3
sS'snobs'
p936
g3
sS'motley'
p937
g3
sS'sucker'
p938
g3
sS'imperil'
p939
g3
sS'misuse'
p940
g3
sS'harrow'
p941
g3
sS'sucked'
p942
g3
sS'reticent'
p943
g3
sS'eloquence'
p944
g10
sS'warped'
p945
g3
sS'aggrieved'
p946
g3
sS'shocking'
p947
g3
sS'disorganized'
p948
g3
sS'noble'
p949
g10
sS'resolute'
p950
g10
sS'exorbitant'
p951
g3
sS'damning'
p952
g3
sS'repressive'
p953
g3
sS'embattled'
p954
g3
sS'missed'
p955
g3
sS'ftw'
p956
g10
sS'mockery'
p957
g3
sS'expulse'
p958
g3
sS'misses'
p959
g3
sS'darling'
p960
g10
sS'impudence'
p961
g3
sS'salute'
p962
g10
sS'nervously'
p963
g3
sS'bungler'
p964
g3
sS'bedlam'
p965
g3
sS'paucity'
p966
g3
sS'qualify'
p967
g10
sS'clique'
p968
g3
sS'weed'
p969
g3
sS'reproach'
p970
g3
sS'bumped'
p971
g3
sS'sicken'
p972
g3
sS'sensations'
p973
g10
sS'god-awful'
p974
g3
sS'belligerent'
p975
g3
sS'unusable'
p976
g3
sS'unusably'
p977
g3
sS'glitter'
p978
g10
sS'unexplained'
p979
g3
sS'peaceable'
p980
g10
sS'leverage'
p981
g10
sS'swipe'
p982
g3
sS'threatening'
p983
g3
sS'hallowed'
p984
g10
sS'flimsy'
p985
g3
sS'zealot'
p986
g3
sS'saint'
p987
g10
sS'aver'
p988
g10
sS'justly'
p989
g10
sS'warmly'
p990
g10
sS'discombobulate'
p991
g3
sS'satirical'
p992
g3
sS'stifle'
p993
g3
sS'rampant'
p994
g3
sS'grace'
p995
g10
sS'ungrateful'
p996
g3
sS'annihilation'
p997
g3
sS'abysmally'
p998
g3
sS'exuberant'
p999
g10
sS'defect'
p1000
g3
sS'servitude'
p1001
g3
sS'mawkish'
p1002
g3
sS'tarnish'
p1003
g3
sS'jeopardize'
p1004
g3
sS'commotion'
p1005
g3
sS'freakishly'
p1006
g3
sS'frail'
p1007
g3
sS'hardy'
p1008
g10
sS'yawn'
p1009
g3
sS'virus'
p1010
g3
sS'reward'
p1011
g10
sS'unequal'
p1012
g3
sS'barren'
p1013
g3
sS'deceitfulness'
p1014
g3
sS'scuffs'
p1015
g3
sS'dragged'
p1016
g3
sS'despise'
p1017
g3
sS'ugh'
p1018
g3
sS'gold'
p1019
g10
sS'exterminate'
p1020
g3
sS'agonize'
p1021
g3
sS'aghast'
p1022
g3
sS'indecorum'
p1023
g3
sS'clog'
p1024
g3
sS'defender'
p1025
g10
sS'overwhelmed'
p1026
g3
sS'ho-hum'
p1027
g3
sS'topnotch'
p1028
g10
sS'failed'
p1029
g3
sS'unjustly'
p1030
g3
sS'snobbish'
p1031
g3
sS'indifference'
p1032
g3
sS'scuff'
p1033
g3
sS'resent'
p1034
g3
sS'remedy'
p1035
g10
sS'farcical-yet-provocative'
p1036
g3
sS'charmingly'
p1037
g10
sS'frightening'
p1038
g3
sS'cruelly'
p1039
g3
sS'enemy'
p1040
g3
sS'progressive'
p1041
g10
sS'cry'
p1042
g3
sS'tanked'
p1043
g3
sS'terrifically'
p1044
g10
sS'obscure'
p1045
g3
sS'outlaw'
p1046
g3
sS'eyecatching'
p1047
g10
sS'bulky'
p1048
g3
sS'disparagingly'
p1049
g3
sS'troublingly'
p1050
g3
sS'overwhelm'
p1051
g3
sS'grumpiest'
p1052
g3
sS'led'
p1053
g10
sS'ill-treatment'
p1054
g3
sS'insidiously'
p1055
g3
sS'unsettling'
p1056
g3
sS'worth-while'
p1057
g10
sS'rejecting'
p1058
g3
sS'smuttier'
p1059
g3
sS'viciousness'
p1060
g3
sS'compliment'
p1061
g10
sS'available'
p1062
g10
sS'hardship'
p1063
g3
sS'unprove'
p1064
g3
sS'fidgety'
p1065
g3
sS'disallow'
p1066
g3
sS'untouched'
p1067
g3
sS'renewed'
p1068
g10
sS'smoldering'
p1069
g3
sS'improved'
p1070
g10
sS'influential'
p1071
g10
sS'offending'
p1072
g3
sS'harpy'
p1073
g3
sS'improves'
p1074
g10
sS'scams'
p1075
g3
sS'retarded'
p1076
g3
sS'disgustfully'
p1077
g3
sS'approve'
p1078
g10
sS'shortsighted'
p1079
g3
sS'majesty'
p1080
g10
sS'drunk'
p1081
g3
sS'asininely'
p1082
g3
sS'improvement'
p1083
g10
sS'worthless'
p1084
g3
sS'devil'
p1085
g3
sS'filth'
p1086
g3
sS'imperfections'
p1087
g3
sS'extravagant'
p1088
g3
sS'sweetheart'
p1089
g10
sS'champion'
p1090
g10
sS'bitchy'
p1091
g3
sS'adaptable'
p1092
g10
sS'struck'
p1093
g3
sS'inclement'
p1094
g3
sS'uncertain'
p1095
g3
sS'reliable'
p1096
g10
sS'admire'
p1097
g10
sS'spitefulness'
p1098
g3
sS'reliably'
p1099
g10
sS'error'
p1100
g3
sS'beautifully'
p1101
g10
sS'exult'
p1102
g10
sS'funny'
p1103
g3
sS'radicalization'
p1104
g3
sS'fallacies'
p1105
g3
sS'reachable'
p1106
g10
sS'ugliness'
p1107
g3
sS'mortifying'
p1108
g3
sS'displeased'
p1109
g3
sS'trivially'
p1110
g10
sS'comprehensive'
p1111
g10
sS'jealously'
p1112
g3
sS'rabid'
p1113
g3
sS'prodigious'
p1114
g10
sS'fabrication'
p1115
g3
sS'infamous'
p1116
g3
sS'anti-israeli'
p1117
g3
sS'oddest'
p1118
g3
sS'picky'
p1119
g3
sS'loathsome'
p1120
g3
sS'discourteously'
p1121
g3
sS'commotions'
p1122
g3
sS'glitz'
p1123
g10
sS'belabor'
p1124
g3
sS'rumbling'
p1125
g3
sS'nefariously'
p1126
g3
sS'dastard'
p1127
g3
sS'obsessions'
p1128
g10
sS'danke'
p1129
g10
sS'eager'
p1130
g10
sS'snappy'
p1131
g10
sS'amusing'
p1132
g10
sS'emergency'
p1133
g3
sS'suffering'
p1134
g3
sS'cataclysm'
p1135
g3
sS'abound'
p1136
g10
sS'cuteness'
p1137
g10
sS'sugar-coat'
p1138
g3
sS'stylish'
p1139
g10
sS'disorder'
p1140
g3
sS'amicably'
p1141
g10
sS'irresistibly'
p1142
g10
sS'depravedly'
p1143
g3
sS'mortify'
p1144
g3
sS'unfazed'
p1145
g10
sS'felonious'
p1146
g3
sS'mighty'
p1147
g10
sS'hard-line'
p1148
g3
sS'dishonorablely'
p1149
g3
sS'pale'
p1150
g3
sS'amicable'
p1151
g10
sS'irresistible'
p1152
g10
sS'novelty'
p1153
g10
sS'benefit'
p1154
g10
sS'twinkly'
p1155
g10
sS'two-faced'
p1156
g3
sS'crooks'
p1157
g3
sS'odor'
p1158
g3
sS'obscures'
p1159
g3
sS'respite'
p1160
g10
sS'two-faces'
p1161
g3
sS'bs'
p1162
g3
sS'obscured'
p1163
g3
sS'discontented'
p1164
g3
sS'wrinkles'
p1165
g3
sS'ambush'
p1166
g3
sS'wrinkled'
p1167
g3
sS'irked'
p1168
g3
sS'garbage'
p1169
g3
sS'prideful'
p1170
g3
sS'disturbingly'
p1171
g3
sS'integral'
p1172
g10
sS'obstructed'
p1173
g3
sS'appropriate'
p1174
g10
sS'unnerving'
p1175
g3
sS'criticisms'
p1176
g3
sS'traduce'
p1177
g3
sS'sneaky'
p1178
g3
sS'glowingly'
p1179
g10
sS'little-known'
p1180
g3
sS'chide'
p1181
g3
sS'addicting'
p1182
g3
sS'exonerate'
p1183
g10
sS'mishandle'
p1184
g3
sS'rhetorical'
p1185
g3
sS'fragmented'
p1186
g3
sS'insensitivity'
p1187
g3
sS'impudent'
p1188
g3
sS'byzantine'
p1189
g3
sS'graciously'
p1190
g10
sS'relaxed'
p1191
g10
sS'brazenness'
p1192
g3
sS'slump'
p1193
g3
sS'well-regarded'
p1194
g10
sS'archaic'
p1195
g3
sS'harangue'
p1196
g3
sS'inhumane'
p1197
g3
sS'maturity'
p1198
g10
sS'slander'
p1199
g3
sS'mature'
p1200
g10
sS'retaliatory'
p1201
g3
sS'awestruck'
p1202
g10
sS'genial'
p1203
g10
sS'reconcile'
p1204
g10
sS'oddity'
p1205
g3
sS'raging'
p1206
g3
sS'unsafe'
p1207
g3
sS'haunt'
p1208
g3
sS'eye-catching'
p1209
g10
sS'graceful'
p1210
g10
sS'troublemaker'
p1211
g3
sS'caustically'
p1212
g3
sS'puzzling'
p1213
g3
sS'sunken'
p1214
g3
sS'self-destructive'
p1215
g3
sS'invalid'
p1216
g3
sS'irreplacible'
p1217
g3
sS'retract'
p1218
g3
sS'deviate'
p1219
g3
sS'sumptuously'
p1220
g10
sS'scapegoat'
p1221
g3
sS'energetic'
p1222
g10
sS'besiege'
p1223
g3
sS'lucid'
p1224
g10
sS'long-lasting'
p1225
g10
sS'suppression'
p1226
g3
sS'effrontery'
p1227
g3
sS'hells'
p1228
g3
sS'mindlessly'
p1229
g3
sS'reasoned'
p1230
g10
sS'wholeheartedly'
p1231
g10
sS'inaccuracy'
p1232
g3
sS'fresh'
p1233
g10
sS'menace'
p1234
g3
sS'debaucher'
p1235
g3
sS'unuseably'
p1236
g3
sS'effigy'
p1237
g3
sS'scratch'
p1238
g3
sS'knotted'
p1239
g3
sS'enjoyably'
p1240
g10
sS'enjoyable'
p1241
g10
sS'renown'
p1242
g10
sS'unmatched'
p1243
g10
sS'amiss'
p1244
g3
sS'gossip'
p1245
g3
sS'unuseable'
p1246
g3
sS'concerned'
p1247
g3
sS'dislike'
p1248
g3
sS'kaput'
p1249
g3
sS'moot'
p1250
g3
sS'torture'
p1251
g3
sS'timely'
p1252
g10
sS'detested'
p1253
g3
sS'magic'
p1254
g10
sS'stodgy'
p1255
g3
sS'uncompetitive'
p1256
g3
sS'racy'
p1257
g3
sS'inelegant'
p1258
g3
sS'insolence'
p1259
g3
sS'disordered'
p1260
g3
sS'mishap'
p1261
g3
sS'unprofitable'
p1262
g3
sS'crook'
p1263
g3
sS'odd'
p1264
g3
sS'leakage'
p1265
g3
sS'waning'
p1266
g3
sS'sweaty'
p1267
g3
sS'consistently'
p1268
g10
sS'aground'
p1269
g3
sS'marvelously'
p1270
g10
sS'itching'
p1271
g3
sS'advantageously'
p1272
g10
sS'sneeringly'
p1273
g3
sS'punch'
p1274
g3
sS'misgiving'
p1275
g3
sS'poverty'
p1276
g3
sS'great'
p1277
g10
sS'revile'
p1278
g3
sS'indiscreetly'
p1279
g3
sS'inoperable'
p1280
g3
sS'screech'
p1281
g3
sS'defeat'
p1282
g10
sS'panicked'
p1283
g3
sS'slogging'
p1284
g3
sS'disobey'
p1285
g3
sS'thumb-up'
p1286
g10
sS'repugn'
p1287
g3
sS'trivialize'
p1288
g3
sS'overzelous'
p1289
g3
sS'inconveniently'
p1290
g3
sS'desiring'
p1291
g10
sS'confidence'
p1292
g10
sS'illegal'
p1293
g3
sS'assuring'
p1294
g10
sS'doubt'
p1295
g3
sS'irrepressible'
p1296
g3
sS'capriciously'
p1297
g3
sS'disappointingly'
p1298
g3
sS'shipwreck'
p1299
g3
sS'infamy'
p1300
g3
sS'heartily'
p1301
g10
sS'rubbish'
p1302
g3
sS'gladly'
p1303
g10
sS'flawless'
p1304
g10
sS'entangle'
p1305
g3
sS'retreated'
p1306
g3
sS'pout'
p1307
g3
sS'unspeakablely'
p1308
g3
sS'wedge'
p1309
g3
sS'weaker'
p1310
g3
sS'bent'
p1311
g3
sS'water-down'
p1312
g3
sS'beckoned'
p1313
g10
sS'trumpet'
p1314
g10
sS'weaken'
p1315
g3
sS'clogs'
p1316
g3
sS'negation'
p1317
g3
sS'delay'
p1318
g3
sS'intelligent'
p1319
g10
sS'pales'
p1320
g3
sS'luster'
p1321
g10
sS'fine-looking'
p1322
g10
sS'abrasive'
p1323
g3
sS'smut'
p1324
g3
sS'throbs'
p1325
g3
sS'pigs'
p1326
g3
sS'preferring'
p1327
g10
sS'solidarity'
p1328
g10
sS'efficiently'
p1329
g10
sS'noises'
p1330
g3
sS'redundant'
p1331
g3
sS'wrip'
p1332
g3
sS'classy'
p1333
g10
sS'well-managed'
p1334
g10
sS'doubtful'
p1335
g3
sS'apathetically'
p1336
g3
sS'hotcakes'
p1337
g10
sS'perfect'
p1338
g10
sS'crabby'
p1339
g3
sS'decay'
p1340
g3
sS'imperfection'
p1341
g3
sS'remorseless'
p1342
g3
sS'choleric'
p1343
g3
sS'volatility'
p1344
g3
sS'cuss'
p1345
g3
sS'non-confidence'
p1346
g3
sS'heavy-handed'
p1347
g3
sS'bothering'
p1348
g3
sS'legendary'
p1349
g10
sS'pompous'
p1350
g3
sS'transparent'
p1351
g10
sS'hallmarks'
p1352
g10
sS'irks'
p1353
g3
sS'scenic'
p1354
g10
sS'sufficiently'
p1355
g10
sS'delightful'
p1356
g10
sS'shortage'
p1357
g3
sS'bump'
p1358
g3
sS'deficiency'
p1359
g3
sS'static'
p1360
g3
sS'castigate'
p1361
g3
sS'irritation'
p1362
g3
sS'jagged'
p1363
g3
sS'banal'
p1364
g3
sS'monumental'
p1365
g10
sS'venom'
p1366
g3
sS'superbly'
p1367
g10
sS'hilarious'
p1368
g10
sS'unprepared'
p1369
g3
sS'adaptive'
p1370
g10
sS'occluding'
p1371
g3
sS'perish'
p1372
g3
sS'unwieldy'
p1373
g3
sS'inferiority'
p1374
g3
sS'greedy'
p1375
g3
sS'unipolar'
p1376
g3
sS'ignominious'
p1377
g3
sS'frigging'
p1378
g3
sS'tempt'
p1379
g10
sS'shun'
p1380
g3
sS'embarrass'
p1381
g3
sS'scary'
p1382
g3
sS'injudicious'
p1383
g3
sS'marvelousness'
p1384
g10
sS'mesmerized'
p1385
g10
sS'scars'
p1386
g3
sS'irking'
p1387
g3
sS'mesmerizes'
p1388
g10
sS'chilly'
p1389
g3
sS'serenity'
p1390
g10
sS'cunts'
p1391
g3
sS'scare'
p1392
g3
sS'backaching'
p1393
g3
sS'straining'
p1394
g3
sS'wondrous'
p1395
g10
sS'affliction'
p1396
g3
sS'deceptive'
p1397
g3
sS'unlawfulness'
p1398
g3
sS'exhilarating'
p1399
g10
sS'belligerently'
p1400
g3
sS'painful'
p1401
g3
sS'pervasive'
p1402
g3
sS'sloppily'
p1403
g3
sS'ambiguous'
p1404
g3
sS'depressing'
p1405
g3
sS'deteriorating'
p1406
g3
sS'vouch'
p1407
g10
sS'disrespectablity'
p1408
g3
sS'luckiness'
p1409
g10
sS'elite'
p1410
g10
sS'egregious'
p1411
g3
sS'bother'
p1412
g3
sS'aggressor'
p1413
g3
sS'extraordinarily'
p1414
g10
sS'tortured'
p1415
g3
sS'appealing'
p1416
g10
sS'rollercoaster'
p1417
g3
sS'tortures'
p1418
g3
sS'allergic'
p1419
g3
sS'steep'
p1420
g3
sS'torrent'
p1421
g3
sS'misunderstand'
p1422
g3
sS'vengeful'
p1423
g3
sS'accusing'
p1424
g3
sS'false'
p1425
g3
sS'beggar'
p1426
g3
sS'chivalrous'
p1427
g10
sS'intriguingly'
p1428
g10
sS'trusting'
p1429
g10
sS'abomination'
p1430
g3
sS'gentle'
p1431
g10
sS'feature-rich'
p1432
g10
sS'blockbuster'
p1433
g10
sS'clearly'
p1434
g10
sS'demolisher'
p1435
g3
sS'well-educated'
p1436
g10
sS'mistress'
p1437
g3
sS'awed'
p1438
g10
sS'brilliances'
p1439
g10
sS'tranquility'
p1440
g10
sS'oppressiveness'
p1441
g3
sS'tyrannical'
p1442
g3
sS'warily'
p1443
g3
sS'disavowal'
p1444
g3
sS'disgustedly'
p1445
g3
sS'fatalistically'
p1446
g3
sS'better-known'
p1447
g10
sS'preposterously'
p1448
g3
sS'fervent'
p1449
g10
sS'hypocrite'
p1450
g3
sS'stronger'
p1451
g10
sS'fiasco'
p1452
g3
sS'maddeningly'
p1453
g3
sS'magnanimously'
p1454
g10
sS'perversion'
p1455
g3
sS'disvalue'
p1456
g3
sS'rough'
p1457
g3
sS'trivial'
p1458
g3
sS'incompliant'
p1459
g3
sS'disillusion'
p1460
g3
sS'illumine'
p1461
g10
sS'conciliate'
p1462
g10
sS'jam'
p1463
g3
sS'wretchedness'
p1464
g3
sS'antagonism'
p1465
g3
sS'irreproachable'
p1466
g10
sS'cranky'
p1467
g3
sS'lucky'
p1468
g10
sS'forebodingly'
p1469
g3
sS'antagonist'
p1470
g3
sS'smash'
p1471
g3
sS'dishearten'
p1472
g3
sS'contemptible'
p1473
g3
sS'extremists'
p1474
g3
sS'disapprobation'
p1475
g3
sS'streamlined'
p1476
g10
sS'allegation'
p1477
g3
sS'shortchange'
p1478
g3
sS'monstrosities'
p1479
g3
sS'low-rated'
p1480
g3
sS'catastrophic'
p1481
g3
sS'dungeon'
p1482
g3
sS'destiny'
p1483
g10
sS'insulting'
p1484
g3
sS'partisan'
p1485
g3
sS'thoughtlessness'
p1486
g3
sS'distressingly'
p1487
g3
sS'unravel'
p1488
g3
sS'injustice'
p1489
g3
sS'exellent'
p1490
g10
sS'disgruntled'
p1491
g3
sS'derogatory'
p1492
g3
sS'explosive'
p1493
g3
sS'ignorance'
p1494
g3
sS'barbarously'
p1495
g3
sS'refuting'
p1496
g3
sS'absentee'
p1497
g3
sS'tantrum'
p1498
g3
sS'perfidious'
p1499
g3
sS'quitter'
p1500
g3
sS'galore'
p1501
g10
sS'insociable'
p1502
g3
sS'exalting'
p1503
g10
sS'gooood'
p1504
g10
sS'coercive'
p1505
g3
sS'jubilate'
p1506
g10
sS'accursed'
p1507
g3
sS'undependable'
p1508
g3
sS'outsider'
p1509
g3
sS'dazzling'
p1510
g10
sS'wonderous'
p1511
g10
sS'willing'
p1512
g10
sS'bleakly'
p1513
g3
sS'hottest'
p1514
g10
sS'waste'
p1515
g3
sS'tyranny'
p1516
g3
sS'slumping'
p1517
g3
sS'coherence'
p1518
g10
sS'acclamation'
p1519
g10
sS'misguide'
p1520
g3
sS'hateful'
p1521
g3
sS'lawlessness'
p1522
g3
sS'enviousness'
p1523
g10
sS'banish'
p1524
g3
sS'sourly'
p1525
g3
sS'lecherous'
p1526
g3
sS'pretentious'
p1527
g3
sS'remorselessly'
p1528
g3
sS'smokescreen'
p1529
g3
sS'exorbitantance'
p1530
g3
sS'layoff'
p1531
g3
sS'delaying'
p1532
g3
sS'lush'
p1533
g10
sS'prosper'
p1534
g10
sS'lascivious'
p1535
g3
sS'excessively'
p1536
g3
sS'optimistic'
p1537
g10
sS'denial'
p1538
g3
sS'exagerates'
p1539
g3
sS'exagerated'
p1540
g3
sS'outbreak'
p1541
g3
sS'terrorism'
p1542
g3
sS'joyously'
p1543
g10
sS'covenant'
p1544
g10
sS'conflicting'
p1545
g3
sS'unimaginable'
p1546
g3
sS'balk'
p1547
g3
sS'complemented'
p1548
g10
sS'onerous'
p1549
g3
sS'self-satisfaction'
p1550
g10
sS'dust'
p1551
g3
sS'light-hearted'
p1552
g10
sS'unimaginably'
p1553
g3
sS'pleasantly'
p1554
g10
sS'fascinate'
p1555
g10
sS'dissing'
p1556
g3
sS'enrage'
p1557
g3
sS'fashionable'
p1558
g10
sS'onerously'
p1559
g3
sS'poisonously'
p1560
g3
sS'devilry'
p1561
g3
sS'negligence'
p1562
g3
sS'dissatisfying'
p1563
g3
sS'glut'
p1564
g3
sS'glum'
p1565
g3
sS'miserableness'
p1566
g3
sS'gentlest'
p1567
g10
sS'roomy'
p1568
g10
sS'generous'
p1569
g10
sS'disquietude'
p1570
g3
sS'screwed-up'
p1571
g3
sS'crack'
p1572
g3
sS'scoundrel'
p1573
g3
sS'vain'
p1574
g3
sS'taunt'
p1575
g3
sS'famously'
p1576
g10
sS'unquestionable'
p1577
g10
sS'atrophy'
p1578
g3
sS'debatable'
p1579
g3
sS'crisp'
p1580
g10
sS'bigotry'
p1581
g3
sS'mistrustful'
p1582
g3
sS'parasite'
p1583
g3
sS'flickering'
p1584
g3
sS'imprison'
p1585
g3
sS'inexperienced'
p1586
g3
sS'sully'
p1587
g3
sS'inconstant'
p1588
g3
sS'ineligible'
p1589
g3
sS'hissing'
p1590
g3
sS'cruelest'
p1591
g3
sS'disbelief'
p1592
g3
sS'passion'
p1593
g10
sS'capability'
p1594
g10
sS'blurry'
p1595
g3
sS'hooligan'
p1596
g3
sS'imaginary'
p1597
g3
sS'fetid'
p1598
g3
sS'adversary'
p1599
g3
sS'coldly'
p1600
g3
sS'gained'
p1601
g10
sS'idolize'
p1602
g10
sS'punitive'
p1603
g3
sS'seedy'
p1604
g3
sS'concession'
p1605
g3
sS'diabolical'
p1606
g3
sS'high-priced'
p1607
g3
sS'villify'
p1608
g3
sS'rectify'
p1609
g10
sS'commitment'
p1610
g10
sS'disaffected'
p1611
g3
sS'disapproval'
p1612
g3
sS'kooky'
p1613
g3
sS'upliftment'
p1614
g10
sS'frustration'
p1615
g3
sS'heresy'
p1616
g3
sS'troubling'
p1617
g3
sS'grate'
p1618
g3
sS'detestable'
p1619
g3
sS'wretchedly'
p1620
g3
sS'soreness'
p1621
g3
sS'smooth'
p1622
g10
sS'triumphant'
p1623
g10
sS'excitement'
p1624
g10
sS'travesties'
p1625
g3
sS'problem'
p1626
g3
sS'detestably'
p1627
g3
sS'profusion'
p1628
g10
sS'sumptuousness'
p1629
g10
sS'rightly'
p1630
g10
sS'plunderer'
p1631
g3
sS'unsavory'
p1632
g3
sS'unwatchable'
p1633
g3
sS'letch'
p1634
g3
sS'renowned'
p1635
g10
sS'incorrigibly'
p1636
g3
sS'deadly'
p1637
g3
sS'overwhelms'
p1638
g3
sS'incorrigible'
p1639
g3
sS'illusion'
p1640
g3
sS'reckless'
p1641
g3
sS'satirize'
p1642
g3
sS'oppression'
p1643
g3
sS'baffling'
p1644
g3
sS'hotheaded'
p1645
g3
sS'inspiration'
p1646
g10
sS'frightfully'
p1647
g3
sS'reprovingly'
p1648
g3
sS'undercutting'
p1649
g3
sS'monstrous'
p1650
g3
sS'villainous'
p1651
g3
sS'unspeakable'
p1652
g3
sS'suicidal'
p1653
g3
sS'saver'
p1654
g10
sS'desirable'
p1655
g10
sS'encouragingly'
p1656
g10
sS'controversial'
p1657
g3
sS'brashly'
p1658
g3
sS'stinks'
p1659
g3
sS'asinininity'
p1660
g3
sS'spew'
p1661
g3
sS'excoriate'
p1662
g3
sS'inhospitality'
p1663
g3
sS'tickle'
p1664
g10
sS'unsteadiness'
p1665
g3
sS'jeeringly'
p1666
g3
sS'daze'
p1667
g3
sS'regal'
p1668
g10
sS'slowest'
p1669
g3
sS'worth'
p1670
g10
sS'blistering'
p1671
g3
sS'compassion'
p1672
g10
sS'distort'
p1673
g3
sS'manic'
p1674
g3
sS'fantastically'
p1675
g10
sS'disobedient'
p1676
g3
sS'grumpier'
p1677
g3
sS'bewildered'
p1678
g3
sS'exaggerate'
p1679
g3
sS'pinch'
p1680
g3
sS'relentlessly'
p1681
g3
sS'triumph'
p1682
g10
sS'monotonous'
p1683
g3
sS'blasphemy'
p1684
g3
sS'depraved'
p1685
g3
sS'blaspheme'
p1686
g3
sS'decadence'
p1687
g3
sS'incompatible'
p1688
g3
sS'revolutionize'
p1689
g10
sS'toll'
p1690
g3
sS'festive'
p1691
g10
sS'protection'
p1692
g10
sS'wastefulness'
p1693
g3
sS'celebration'
p1694
g10
sS'stresses'
p1695
g3
sS'anarchism'
p1696
g3
sS'foolishness'
p1697
g3
sS'god-send'
p1698
g10
sS'smoke'
p1699
g3
sS'insensitively'
p1700
g3
sS'lonesome'
p1701
g3
sS'anarchist'
p1702
g3
sS'imaculate'
p1703
g10
sS'envious'
p1704
g10
sS'secure'
p1705
g10
sS'discontinuous'
p1706
g3
sS'spooky'
p1707
g3
sS'inequitable'
p1708
g3
sS'angrily'
p1709
g3
sS'inequitably'
p1710
g3
sS'uncivil'
p1711
g3
sS'cheats'
p1712
g3
sS'vivid'
p1713
g10
sS'sparkling'
p1714
g10
sS'achievable'
p1715
g10
sS'romantically'
p1716
g10
sS'devastation'
p1717
g3
sS'ploy'
p1718
g3
sS'negative'
p1719
g3
sS'insult'
p1720
g3
sS'agonizingly'
p1721
g3
sS'plagiarize'
p1722
g3
sS'snarky'
p1723
g3
sS'award'
p1724
g10
sS'sobering'
p1725
g3
sS'unraveled'
p1726
g3
sS'adamant'
p1727
g3
sS'striving'
p1728
g10
sS'overrun'
p1729
g3
sS'err'
p1730
g3
sS'work'
p1731
g10
sS'refusing'
p1732
g3
sS'worn'
p1733
g3
sS'criticizing'
p1734
g3
sS'elegantly'
p1735
g10
sS'excellant'
p1736
g10
sS'compulsive'
p1737
g3
sS'goood'
p1738
g10
sS'pollute'
p1739
g3
sS'deadweight'
p1740
g3
sS'unreadable'
p1741
g3
sS'heartless'
p1742
g3
sS'impair'
p1743
g3
sS'fanciful'
p1744
g3
sS'flairs'
p1745
g3
sS'disrespectfulness'
p1746
g3
sS'recovery'
p1747
g10
sS'farce'
p1748
g3
sS'agony'
p1749
g3
sS'debauchery'
p1750
g3
sS'morbid'
p1751
g3
sS'moron'
p1752
g3
sS'disappoint'
p1753
g3
sS'fudge'
p1754
g3
sS'fever'
p1755
g3
sS'fav'
p1756
g10
sS'lag'
p1757
g3
sS'outbursts'
p1758
g3
sS'meaningful'
p1759
g10
sS'complacent'
p1760
g3
sS'foolhardy'
p1761
g3
sS'austere'
p1762
g3
sS'alienate'
p1763
g3
sS'hasty'
p1764
g3
sS'sorrowful'
p1765
g3
sS'appreciate'
p1766
g10
sS'stimulate'
p1767
g10
sS'backwoods'
p1768
g3
sS'haste'
p1769
g3
sS'atrocity'
p1770
g3
sS'greed'
p1771
g3
sS'modesty'
p1772
g10
sS'infested'
p1773
g3
sS'hardhearted'
p1774
g3
sS'tricked'
p1775
g3
sS'innovative'
p1776
g10
sS'satisfies'
p1777
g10
sS'awfulness'
p1778
g3
sS'valor'
p1779
g10
sS'precipitate'
p1780
g3
sS'damages'
p1781
g3
sS'unfortunate'
p1782
g3
sS'remission'
p1783
g10
sS'amenable'
p1784
g10
sS'stuttering'
p1785
g3
sS'bane'
p1786
g3
sS'repulsive'
p1787
g3
sS'shameful'
p1788
g3
sS'payback'
p1789
g3
sS'dissappointing'
p1790
g3
sS'rocky'
p1791
g3
sS'reasonably'
p1792
g10
sS'misbehave'
p1793
g3
sS'reasonable'
p1794
g10
sS'dings'
p1795
g3
sS'dumping'
p1796
g3
sS'mangled'
p1797
g3
sS'apotheosis'
p1798
g10
sS'mangles'
p1799
g3
sS'inteferes'
p1800
g3
sS'whining'
p1801
g3
sS'disloyalty'
p1802
g3
sS'remorse'
p1803
g3
sS'disputed'
p1804
g3
sS'lawless'
p1805
g3
sS'fervid'
p1806
g10
sS'dashing'
p1807
g10
sS'amazement'
p1808
g10
sS'insubstantially'
p1809
g3
sS'unfulfilled'
p1810
g3
sS'maniac'
p1811
g3
sS'lousy'
p1812
g3
sS'oppose'
p1813
g3
sS'regress'
p1814
g3
sS'burdensomely'
p1815
g3
sS'clouding'
p1816
g3
sS'truthfulness'
p1817
g10
sS'daunting'
p1818
g3
sS'miscalculation'
p1819
g3
sS'delicious'
p1820
g10
sS'drones'
p1821
g3
sS'thoughtfully'
p1822
g10
sS'tangle'
p1823
g3
sS'rejects'
p1824
g3
sS'protracted'
p1825
g3
sS'vibrate'
p1826
g3
sS'overzealously'
p1827
g3
sS'plentiful'
p1828
g10
sS'immodest'
p1829
g3
sS'fumble'
p1830
g3
sS'snags'
p1831
g3
sS'furor'
p1832
g3
sS'damaging'
p1833
g3
sS'paltry'
p1834
g3
sS'fanatical'
p1835
g3
sS'happily'
p1836
g10
sS'diversified'
p1837
g10
sS'ludicrously'
p1838
g3
sS'rejected'
p1839
g3
sS'wasted'
p1840
g3
sS'rebuff'
p1841
g3
sS'mercy'
p1842
g10
sS'prefers'
p1843
g10
sS'ferocity'
p1844
g3
sS'guile'
p1845
g3
sS'reaffirm'
p1846
g10
sS'splendidly'
p1847
g10
sS'guilt'
p1848
g3
sS'devious'
p1849
g3
sS'malady'
p1850
g3
sS'pessimism'
p1851
g3
sS'convience'
p1852
g10
sS'enchanted'
p1853
g10
sS'lull'
p1854
g3
sS'stalls'
p1855
g3
sS'detracted'
p1856
g3
sS'concens'
p1857
g3
sS'latency'
p1858
g3
sS'quieter'
p1859
g10
sS'genuine'
p1860
g10
sS'inestimably'
p1861
g10
sS'convenient'
p1862
g10
sS'chagrin'
p1863
g3
sS'elation'
p1864
g10
sS'overtook'
p1865
g10
sS'luxury'
p1866
g10
sS'finagle'
p1867
g3
sS'timidity'
p1868
g3
sS'prohibitive'
p1869
g3
sS'peevish'
p1870
g3
sS'inadverently'
p1871
g3
sS'calmness'
p1872
g10
sS'unsophisticated'
p1873
g3
sS'oppress'
p1874
g3
sS'fussy'
p1875
g3
sS'precarious'
p1876
g3
sS'eminent'
p1877
g10
sS'respectfully'
p1878
g10
sS'enjoyed'
p1879
g10
sS'painfully'
p1880
g3
sS'guidance'
p1881
g10
sS'gutsy'
p1882
g10
sS'leakages'
p1883
g3
sS'nightmarishly'
p1884
g3
sS'ardor'
p1885
g10
sS'preferred'
p1886
g10
sS'degradation'
p1887
g3
sS'nasty'
p1888
g3
sS'ill-designed'
p1889
g3
sS'cleanly'
p1890
g10
sS'horrifys'
p1891
g3
sS'implication'
p1892
g3
sS'steal'
p1893
g3
sS'erroneous'
p1894
g3
sS'miserably'
p1895
g3
sS'gladness'
p1896
g10
sS'damnation'
p1897
g3
sS'horrendous'
p1898
g3
sS'miserable'
p1899
g3
sS'diffidence'
p1900
g3
sS'unable'
p1901
g3
sS'arcane'
p1902
g3
sS'succeeding'
p1903
g10
sS'sloooow'
p1904
g3
sS'misguided'
p1905
g3
sS'infidel'
p1906
g3
sS'raked'
p1907
g3
sS'satisified'
p1908
g10
sS'detracting'
p1909
g3
sS'supports'
p1910
g10
sS'disservice'
p1911
g3
sS'brat'
p1912
g3
sS'throb'
p1913
g3
sS'unreliable'
p1914
g3
sS'ilu'
p1915
g10
sS'exceeds'
p1916
g10
sS'freshest'
p1917
g10
sS'peacefully'
p1918
g10
sS'ingenious'
p1919
g10
sS'tough'
p1920
g10
sS'freakish'
p1921
g3
sS'condescending'
p1922
g3
sS'grudges'
p1923
g3
sS'infirm'
p1924
g3
sS'oblivious'
p1925
g3
sS'frenetic'
p1926
g3
sS'gratitude'
p1927
g10
sS'hasseling'
p1928
g3
sS'petty'
p1929
g3
sS'trickery'
p1930
g3
sS'backwardness'
p1931
g3
sS'condemned'
p1932
g3
sS'charisma'
p1933
g10
sS'flexible'
p1934
g10
sS'warmth'
p1935
g10
sS'leech'
p1936
g3
sS'unsupportive'
p1937
g3
sS'beloved'
p1938
g10
sS'plebeian'
p1939
g3
sS'beastly'
p1940
g3
sS'excite'
p1941
g10
sS'graciousness'
p1942
g10
sS'inconsolable'
p1943
g3
sS'anti-us'
p1944
g3
sS'inconsolably'
p1945
g3
sS'imbroglio'
p1946
g3
sS'dissention'
p1947
g3
sS'spellbind'
p1948
g10
sS'gracious'
p1949
g10
sS'inhibit'
p1950
g3
sS'harms'
p1951
g3
sS'dotingly'
p1952
g10
sS'ail'
p1953
g3
sS'abrupt'
p1954
g3
sS'entertains'
p1955
g10
sS'thrash'
p1956
g3
sS'rightness'
p1957
g10
sS'overtaking'
p1958
g10
sS'mistake'
p1959
g3
sS'succes'
p1960
g10
sS'stink'
p1961
g3
sS'cons'
p1962
g3
sS'preeminent'
p1963
g10
sS'divisively'
p1964
g3
sS'exceptionally'
p1965
g10
sS'dumped'
p1966
g3
sS'sting'
p1967
g3
sS'dizzy'
p1968
g3
sS'exile'
p1969
g3
sS'uplift'
p1970
g10
sS'over-hyped'
p1971
g3
sS'discomfititure'
p1972
g3
sS'grapple'
p1973
g3
sS'agreeableness'
p1974
g10
sS'incorrectly'
p1975
g3
sS'imperiously'
p1976
g3
sS'fuss'
p1977
g3
sS'rail'
p1978
g3
sS'evil'
p1979
g3
sS'immaterial'
p1980
g3
sS'humble'
p1981
g10
sS'taint'
p1982
g3
sS'ragged'
p1983
g3
sS'rewardingly'
p1984
g10
sS'impertinent'
p1985
g3
sS'bereave'
p1986
g3
sS'stringent'
p1987
g3
sS'dignify'
p1988
g10
sS'extol'
p1989
g10
sS'passive'
p1990
g3
sS'exalt'
p1991
g10
sS'righteous'
p1992
g10
sS'usable'
p1993
g10
sS'mocked'
p1994
g3
sS'insensitive'
p1995
g3
sS'dignity'
p1996
g10
sS'bastards'
p1997
g3
sS'contrariness'
p1998
g3
sS'unfounded'
p1999
g3
sS'retreat'
p2000
g3
sS'disadvantage'
p2001
g3
sS'autocratic'
p2002
g3
sS'disinclination'
p2003
g3
sS'glitch'
p2004
g3
sS'lapsed'
p2005
g3
sS'farcically'
p2006
g3
sS'erodes'
p2007
g3
sS'lapses'
p2008
g3
sS'invaluable'
p2009
g10
sS'starvation'
p2010
g3
sS'embroiled'
p2011
g3
sS'honored'
p2012
g10
sS'flatter'
p2013
g10
sS'rile'
p2014
g3
sS'hassle'
p2015
g3
sS'pugnacious'
p2016
g3
sS'bemused'
p2017
g3
sS'bore'
p2018
g3
sS'contaminating'
p2019
g3
sS'confusing'
p2020
g3
sS'denies'
p2021
g3
sS'congratulate'
p2022
g10
sS'humor'
p2023
g10
sS'phenomenal'
p2024
g10
sS'gruesomely'
p2025
g3
sS'indoctrination'
p2026
g3
sS'enticingly'
p2027
g10
sS'denied'
p2028
g3
sS'adorable'
p2029
g10
sS'cash-strapped'
p2030
g3
sS'posh'
p2031
g10
sS'angriness'
p2032
g3
sS'break-ups'
p2033
g3
sS'restructuring'
p2034
g10
sS'underpowered'
p2035
g3
sS'chafe'
p2036
g3
sS'chaff'
p2037
g3
sS'injure'
p2038
g3
sS'hostilities'
p2039
g3
sS'titillatingly'
p2040
g10
sS'cherish'
p2041
g10
sS'indecency'
p2042
g3
sS'dilemma'
p2043
g3
sS'unabashedly'
p2044
g10
sS'wasting'
p2045
g3
sS'delighted'
p2046
g10
sS'formidable'
p2047
g10
sS'balanced'
p2048
g10
sS'lewd'
p2049
g3
sS'stumble'
p2050
g3
sS'strangely'
p2051
g3
sS'hard-liner'
p2052
g3
sS'deception'
p2053
g3
sS'overblown'
p2054
g3
sS'derision'
p2055
g3
sS'sagging'
p2056
g3
sS'overjoyed'
p2057
g10
sS'diligence'
p2058
g10
sS'forgetful'
p2059
g3
sS'astonished'
p2060
g10
sS'evaluative'
p2061
g10
sS'high-quality'
p2062
g10
sS'unthinkable'
p2063
g3
sS'generosity'
p2064
g10
sS'unusually'
p2065
g3
sS'promises'
p2066
g10
sS'restructure'
p2067
g10
sS'scandalous'
p2068
g3
sS'flaw'
p2069
g3
sS'opportunistic'
p2070
g3
sS'promised'
p2071
g10
sS'disputable'
p2072
g3
sS'dying'
p2073
g3
sS'meanness'
p2074
g3
sS'disloyal'
p2075
g3
sS'falsely'
p2076
g3
sS'evasive'
p2077
g3
sS'unwilling'
p2078
g3
sS'frolic'
p2079
g10
sS'eye-catch'
p2080
g10
sS'guiltless'
p2081
g10
sS'illogic'
p2082
g3
sS'polite'
p2083
g10
sS'mightily'
p2084
g10
sS'cheated'
p2085
g3
sS'faze'
p2086
g3
sS'respectable'
p2087
g10
sS'accolade'
p2088
g10
sS'cheater'
p2089
g3
sS'unproving'
p2090
g3
sS'denunciate'
p2091
g3
sS'broke'
p2092
g3
sS'debauch'
p2093
g3
sS'grateful'
p2094
g10
sS'adamantly'
p2095
g3
sS'witty'
p2096
g10
sS'extoll'
p2097
g10
sS'dissatisfies'
p2098
g3
sS'honoring'
p2099
g10
sS'counter-attack'
p2100
g10
sS'dissatisfied'
p2101
g3
sS'glad'
p2102
g10
sS'terror'
p2103
g3
sS'protective'
p2104
g10
sS'liability'
p2105
g3
sS'ferociously'
p2106
g3
sS'trouble'
p2107
g3
sS'feeble'
p2108
g3
sS'dismalness'
p2109
g3
sS'fragile'
p2110
g3
sS'ill-formed'
p2111
g3
sS'distasteful'
p2112
g3
sS'brave'
p2113
g10
sS'regret'
p2114
g3
sS'bravo'
p2115
g10
sS'repetitive'
p2116
g3
sS'pratfall'
p2117
g3
sS'perplexity'
p2118
g3
sS'helpless'
p2119
g3
sS'tempest'
p2120
g3
sS'acrimonious'
p2121
g3
sS'enticing'
p2122
g10
sS'curse'
p2123
g3
sS'well-established'
p2124
g10
sS'pleasingly'
p2125
g10
sS'havoc'
p2126
g3
sS'supporter'
p2127
g10
sS'time-consuming'
p2128
g3
sS'terror-genic'
p2129
g3
sS'paradoxical'
p2130
g3
sS'satisfy'
p2131
g10
sS'supporting'
p2132
g10
sS'unsure'
p2133
g3
sS'efficacious'
p2134
g10
sS'peeled'
p2135
g3
sS'gawk'
p2136
g3
sS'disclaim'
p2137
g3
sS'fractious'
p2138
g3
sS'demonizing'
p2139
g3
sS'bulkyness'
p2140
g3
sS'sociable'
p2141
g10
sS'merriment'
p2142
g10
sS'impatiently'
p2143
g3
sS'disavow'
p2144
g3
sS'vibrating'
p2145
g3
sS'burdensome'
p2146
g3
sS'patriotic'
p2147
g10
sS'ineffectiveness'
p2148
g3
sS'snobish'
p2149
g3
sS'spoonfed'
p2150
g3
sS'anti-occupation'
p2151
g3
sS'sincerely'
p2152
g10
sS'sufferers'
p2153
g3
sS'atrocious'
p2154
g3
sS'nauseating'
p2155
g3
sS'stingy'
p2156
g3
sS'senile'
p2157
g3
sS'captivate'
p2158
g10
sS'wonderfully'
p2159
g10
sS'melodramatically'
p2160
g3
sS'marginally'
p2161
g3
sS'plaything'
p2162
g3
sS'throbbed'
p2163
g3
sS'judder'
p2164
g3
sS'misconception'
p2165
g3
sS'bemoaning'
p2166
g3
sS'defeats'
p2167
g10
sS'nauseatingly'
p2168
g3
sS'dissembler'
p2169
g3
sS'flaking'
p2170
g3
sS'woefully'
p2171
g3
sS'stimulating'
p2172
g10
sS'dedicated'
p2173
g10
sS'supremacy'
p2174
g10
sS'abort'
p2175
g3
sS'refine'
p2176
g10
sS'chic'
p2177
g10
sS'ill-treated'
p2178
g3
sS'redundancy'
p2179
g3
sS'bankrupt'
p2180
g3
sS'malevolence'
p2181
g3
sS'exceptional'
p2182
g10
sS'blithe'
p2183
g10
sS'freezes'
p2184
g3
sS'deteriorate'
p2185
g3
sS'peerless'
p2186
g10
sS'brazen'
p2187
g3
sS'disgusted'
p2188
g3
sS'drastic'
p2189
g3
sS'flourish'
p2190
g10
sS'vomited'
p2191
g3
sS'bid-rigging'
p2192
g3
sS'desperation'
p2193
g3
sS'nosey'
p2194
g3
sS'sagacity'
p2195
g10
sS'crept'
p2196
g3
sS'fortuitously'
p2197
g10
sS'offend'
p2198
g3
sS'crumple'
p2199
g3
sS'forfeit'
p2200
g3
sS'playful'
p2201
g10
sS'nefarious'
p2202
g3
sS'cold'
p2203
g3
sS'hampered'
p2204
g3
sS'dangerousness'
p2205
g3
sS'sinfully'
p2206
g3
sS'suffocate'
p2207
g3
sS'spacious'
p2208
g10
sS'dreadfully'
p2209
g3
sS'inefficiency'
p2210
g3
sS'shrouded'
p2211
g3
sS'hale'
p2212
g10
sS'wealthy'
p2213
g10
sS'first-rate'
p2214
g10
sS'lies'
p2215
g3
sS'streaky'
p2216
g3
sS'fawningly'
p2217
g3
sS'outrageously'
p2218
g3
sS'vexation'
p2219
g3
sS'grouse'
p2220
g3
sS'worriedly'
p2221
g3
sS'accomplish'
p2222
g10
sS'bullish'
p2223
g10
sS'bulkiness'
p2224
g3
sS'irony'
p2225
g3
sS'belligerence'
p2226
g3
sS'thirst'
p2227
g3
sS'hastily'
p2228
g3
sS'hallucinate'
p2229
g3
sS'rational'
p2230
g10
sS'ruinous'
p2231
g3
sS'busybody'
p2232
g3
sS'insular'
p2233
g3
sS'scandalize'
p2234
g3
sS'carp'
p2235
g3
sS'advantages'
p2236
g10
sS'gaffe'
p2237
g3
sS'ominous'
p2238
g3
sS'inevitable'
p2239
g3
sS'tangles'
p2240
g3
sS'vehemently'
p2241
g3
sS'honest'
p2242
g10
sS'tangled'
p2243
g3
sS'outcry'
p2244
g3
sS'support'
p2245
g10
sS'blind'
p2246
g3
sS'impossibly'
p2247
g3
sS'striking'
p2248
g10
sS'illustrious'
p2249
g10
sS'indecent'
p2250
g3
sS'omission'
p2251
g3
sS'ill-used'
p2252
g3
sS'zap'
p2253
g3
sS'impetuous'
p2254
g3
sS'imprecate'
p2255
g3
sS'truthfully'
p2256
g10
sS'silent'
p2257
g10
sS'thankless'
p2258
g3
sS'callous'
p2259
g3
sS'traction'
p2260
g10
sS'tragic'
p2261
g3
sS'jutter'
p2262
g3
sS'cost-effective'
p2263
g10
sS'brainy'
p2264
g10
sS'uninformed'
p2265
g3
sS'appreciates'
p2266
g10
sS'greatness'
p2267
g10
sS'junkyard'
p2268
g3
sS'heretical'
p2269
g3
sS'appreciated'
p2270
g10
sS'dinky'
p2271
g3
sS'disses'
p2272
g3
sS'optimism'
p2273
g10
sS'dissed'
p2274
g3
sS'impinge'
p2275
g3
sS'extinguish'
p2276
g3
sS'meticulous'
p2277
g10
sS'sublime'
p2278
g10
sS'troublesome'
p2279
g3
sS'contentious'
p2280
g3
sS'angel'
p2281
g10
sS'aspersion'
p2282
g3
sS'premier'
p2283
g10
sS'slap'
p2284
g3
sS'distorted'
p2285
g3
sS'anger'
p2286
g3
sS'insatiable'
p2287
g3
sS'recover'
p2288
g10
sS'mispronounces'
p2289
g3
sS'lumpy'
p2290
g3
sS'terrific'
p2291
g10
sS'rascals'
p2292
g3
sS'beggarly'
p2293
g3
sS'mispronounced'
p2294
g3
sS'swelled'
p2295
g3
sS'prick'
p2296
g3
sS'oppressive'
p2297
g3
sS'infiltrators'
p2298
g3
sS'neatly'
p2299
g10
sS'expertly'
p2300
g10
sS'd*mn'
p2301
g3
sS'flawlessly'
p2302
g10
sS'saintliness'
p2303
g10
sS'steady'
p2304
g10
sS'wreaked'
p2305
g3
sS'slaves'
p2306
g3
sS'unnervingly'
p2307
g3
sS'wripped'
p2308
g3
sS'so-cal'
p2309
g3
sS'gratifies'
p2310
g10
sS'gratified'
p2311
g10
sS'boggle'
p2312
g3
sS'crashing'
p2313
g3
sS'nemesis'
p2314
g3
sS'downturns'
p2315
g3
sS'jolt'
p2316
g3
sS'staid'
p2317
g3
sS'direly'
p2318
g3
sS'maliciousness'
p2319
g3
sS'taunting'
p2320
g3
sS'stain'
p2321
g3
sS'malcontent'
p2322
g3
sS'shrill'
p2323
g3
sS'upgradeable'
p2324
g10
sS'incivility'
p2325
g3
sS'handily'
p2326
g10
sS'loath'
p2327
g3
sS'womanizing'
p2328
g3
sS'revulsion'
p2329
g3
sS'deprecate'
p2330
g3
sS'appreciatively'
p2331
g10
sS'sorrowfully'
p2332
g3
sS'imbecile'
p2333
g3
sS'indeterminable'
p2334
g3
sS'indeterminably'
p2335
g3
sS'effectual'
p2336
g10
sS'losers'
p2337
g3
sS'browbeat'
p2338
g3
sS'famine'
p2339
g3
sS'unfit'
p2340
g3
sS'disquietingly'
p2341
g3
sS'recalcitrant'
p2342
g3
sS'staunch'
p2343
g10
sS'culpable'
p2344
g3
sS'concern'
p2345
g3
sS'swankier'
p2346
g10
sS'incite'
p2347
g3
sS'altercation'
p2348
g3
sS'nicest'
p2349
g10
sS'stellarly'
p2350
g10
sS'pettifog'
p2351
g3
sS'blame'
p2352
g3
sS'glaringly'
p2353
g3
sS'hurts'
p2354
g3
sS'venomously'
p2355
g3
sS'ultra-crisp'
p2356
g10
sS'talented'
p2357
g10
sS'crisper'
p2358
g10
sS'self-interest'
p2359
g3
sS'temper'
p2360
g3
sS'reluctantly'
p2361
g3
sS'shamefully'
p2362
g3
sS'repulsively'
p2363
g3
sS'madness'
p2364
g3
sS'occluded'
p2365
g3
sS'foreboding'
p2366
g3
sS'slogged'
p2367
g3
sS'occludes'
p2368
g3
sS'exploit'
p2369
g3
sS'charismatic'
p2370
g10
sS'thumbs-up'
p2371
g10
sS'undercuts'
p2372
g3
sS'menacingly'
p2373
g3
sS'dictator'
p2374
g3
sS'jerky'
p2375
g3
sS'layoff-happy'
p2376
g3
sS'exhaustion'
p2377
g3
sS'impugn'
p2378
g3
sS'dead-on'
p2379
g10
sS'wounds'
p2380
g3
sS'vagueness'
p2381
g3
sS'scarily'
p2382
g3
sS'trick'
p2383
g3
sS'notoriety'
p2384
g3
sS'scum'
p2385
g3
sS'cherub'
p2386
g10
sS'coolest'
p2387
g10
sS'revitalize'
p2388
g10
sS'implacable'
p2389
g3
sS'zenith'
p2390
g10
sS'anxieties'
p2391
g3
sS'bias'
p2392
g3
sS'bestial'
p2393
g3
sS'thrills'
p2394
g10
sS'worry'
p2395
g3
sS'poetic'
p2396
g10
sS'contortions'
p2397
g3
sS'anarchistic'
p2398
g3
sS'favorited'
p2399
g10
sS'pedantic'
p2400
g3
sS'enjoyment'
p2401
g10
sS'smelt'
p2402
g3
sS'stingingly'
p2403
g3
sS'nobly'
p2404
g10
sS'enchanting'
p2405
g10
sS'complained'
p2406
g3
sS'undependability'
p2407
g3
sS'bondage'
p2408
g3
sS'severe'
p2409
g3
sS'breeze'
p2410
g10
sS'demean'
p2411
g3
sS'knowledgeable'
p2412
g10
sS'valuable'
p2413
g10
sS'death'
p2414
g3
sS'senseless'
p2415
g3
sS'self-coup'
p2416
g3
sS'subversion'
p2417
g3
sS'complements'
p2418
g10
sS'mournful'
p2419
g3
sS'disproportionate'
p2420
g3
sS'frown'
p2421
g3
sS'spectacular'
p2422
g10
sS'offence'
p2423
g3
sS'earnest'
p2424
g10
sS'tingle'
p2425
g10
sS'detract'
p2426
g3
sS'ramshackle'
p2427
g3
sS'stunt'
p2428
g3
sS'fortune'
p2429
g10
sS'smell'
p2430
g3
sS'endorses'
p2431
g10
sS'miracle'
p2432
g10
sS'feckless'
p2433
g3
sS'disoobedient'
p2434
g3
sS'endorsed'
p2435
g10
sS'falsehood'
p2436
g3
sS'apologists'
p2437
g3
sS'pointlessly'
p2438
g3
sS'hacks'
p2439
g3
sS'zealously'
p2440
g3
sS'derisive'
p2441
g3
sS'squirm'
p2442
g3
sS'perverse'
p2443
g3
sS'conservative'
p2444
g3
sS'debacle'
p2445
g3
sS'clear-cut'
p2446
g10
sS'dejection'
p2447
g3
sS'sadden'
p2448
g3
sS'dreadfulness'
p2449
g3
sS'strained'
p2450
g3
sS'unease'
p2451
g3
sS'uneasy'
p2452
g3
sS'uncivilized'
p2453
g3
sS'hectic'
p2454
g3
sS'exciting'
p2455
g10
sS'desiccated'
p2456
g3
sS'fondness'
p2457
g10
sS'emasculate'
p2458
g3
sS'creaking'
p2459
g3
sS'piety'
p2460
g10
sS'assassin'
p2461
g3
sS'daringly'
p2462
g10
sS'protests'
p2463
g3
sS'mismanage'
p2464
g3
sS'commodious'
p2465
g10
sS'entrust'
p2466
g10
sS'pamper'
p2467
g10
sS'stuttered'
p2468
g3
sS'stark'
p2469
g3
sS'dissolute'
p2470
g3
sS'unreliability'
p2471
g3
sS'politeness'
p2472
g10
sS'immaculate'
p2473
g10
sS'bull----'
p2474
g3
sS'overpaid'
p2475
g3
sS'drains'
p2476
g3
sS'delayed'
p2477
g3
sS'manipulative'
p2478
g3
sS'recoil'
p2479
g3
sS'upbeat'
p2480
g10
sS'irreversible'
p2481
g3
sS'election-rigger'
p2482
g3
sS'god-given'
p2483
g10
sS'fraud'
p2484
g3
sS'afordable'
p2485
g10
sS'receptive'
p2486
g10
sS'lawfully'
p2487
g10
sS'sadness'
p2488
g3
sS'backbiting'
p2489
g3
sS'gibberish'
p2490
g3
sS'unwelcome'
p2491
g3
sS'hotbeds'
p2492
g3
sS'selfishly'
p2493
g3
sS'productively'
p2494
g10
sS'trample'
p2495
g3
sS'woeful'
p2496
g3
sS'poor'
p2497
g3
sS'authoritarian'
p2498
g3
sS'expropriation'
p2499
g3
sS'desolation'
p2500
g3
sS'nonresponsive'
p2501
g3
sS'overreach'
p2502
g3
sS'unattractive'
p2503
g3
sS'titillating'
p2504
g10
sS'apathy'
p2505
g3
sS'hard-working'
p2506
g10
sS'forswear'
p2507
g3
sS'mourner'
p2508
g3
sS'banishment'
p2509
g3
sS'splitting'
p2510
g3
sS'franticly'
p2511
g3
sS'unrest'
p2512
g3
sS'thoughtful'
p2513
g10
sS'messy'
p2514
g3
sS'dreadful'
p2515
g3
sS'fastuous'
p2516
g3
sS'lackeys'
p2517
g3
sS'fervor'
p2518
g10
sS'resounding'
p2519
g10
sS'fancinating'
p2520
g10
sS'rogue'
p2521
g3
sS'deginified'
p2522
g10
sS'maladjusted'
p2523
g3
sS'securely'
p2524
g10
sS'heaven'
p2525
g10
sS'deficient'
p2526
g3
sS'shrivel'
p2527
g3
sS'disrepute'
p2528
g3
sS'throbbing'
p2529
g3
sS'stigmatize'
p2530
g3
sS'enfeeble'
p2531
g3
sS'enhancement'
p2532
g10
sS'enjoin'
p2533
g3
sS'hamper'
p2534
g3
sS'darkness'
p2535
g3
sS'exhilaratingly'
p2536
g10
sS'scorching'
p2537
g3
sS'lurch'
p2538
g3
sS'blindside'
p2539
g3
sS'repugnant'
p2540
g3
sS'turmoil'
p2541
g3
sS'loose'
p2542
g3
sS'mendacious'
p2543
g3
sS'selective'
p2544
g10
sS'vindictiveness'
p2545
g3
sS'eventful'
p2546
g10
sS'strong'
p2547
g10
sS'creeps'
p2548
g3
sS'unproven'
p2549
g3
sS'losses'
p2550
g3
sS'whine'
p2551
g3
sS'creepy'
p2552
g3
sS'unproved'
p2553
g3
sS'whiny'
p2554
g3
sS'snappish'
p2555
g3
sS'unproves'
p2556
g3
sS'upsettingly'
p2557
g3
sS'invalidate'
p2558
g3
sS'toughness'
p2559
g3
sS'marginal'
p2560
g3
sS'impiety'
p2561
g3
sS'fatuous'
p2562
g3
sS'hogs'
p2563
g3
sS'chunky'
p2564
g3
sS'lewdness'
p2565
g3
sS'drippy'
p2566
g3
sS'easy-to-use'
p2567
g10
sS'flaws'
p2568
g3
sS'amaze'
p2569
g10
sS'revelation'
p2570
g10
sS'heroic'
p2571
g10
sS'mysterious'
p2572
g3
sS'injury'
p2573
g3
sS'insanely'
p2574
g3
sS'erode'
p2575
g3
sS'regrettable'
p2576
g3
sS'instrumental'
p2577
g10
sS'excuse'
p2578
g3
sS'regrettably'
p2579
g3
sS'stupify'
p2580
g3
sS'pretense'
p2581
g3
sS'immoderately'
p2582
g3
sS'gauche'
p2583
g3
sS'offender'
p2584
g3
sS'entrapment'
p2585
g3
sS'spontaneous'
p2586
g10
sS'tenacious'
p2587
g10
sS'rejuvenate'
p2588
g10
sS'aggressiveness'
p2589
g3
sS'stinging'
p2590
g3
sS'boycott'
p2591
g3
sS'fundamentalism'
p2592
g3
sS'lacks'
p2593
g3
sS'unlucky'
p2594
g3
sS'reject'
p2595
g3
sS'vigilance'
p2596
g10
sS'rude'
p2597
g3
sS'inconceivably'
p2598
g3
sS'malcontented'
p2599
g3
sS'sneak'
p2600
g3
sS'idiocy'
p2601
g3
sS'roadblocks'
p2602
g3
sS'gasp'
p2603
g3
sS'inconceivable'
p2604
g3
sS'diabolically'
p2605
g3
sS'benifits'
p2606
g10
sS'contrived'
p2607
g3
sS'criticize'
p2608
g3
sS'deluge'
p2609
g3
sS'frictions'
p2610
g3
sS'bugs'
p2611
g3
sS'bashing'
p2612
g3
sS'dread'
p2613
g3
sS'deterioration'
p2614
g3
sS'irately'
p2615
g3
sS'crafty'
p2616
g3
sS'ding'
p2617
g3
sS'torturous'
p2618
g3
sS'annoyingly'
p2619
g3
sS'perfidity'
p2620
g3
sS'dizzing'
p2621
g3
sS'defiant'
p2622
g3
sS'hell'
p2623
g3
sS'repugnantly'
p2624
g3
sS'reluctance'
p2625
g3
sS'fruitful'
p2626
g10
sS'absence'
p2627
g3
sS'astonish'
p2628
g10
sS'heros'
p2629
g10
sS'flabbergast'
p2630
g3
sS'finer'
p2631
g10
sS'fool'
p2632
g3
sS'motivated'
p2633
g10
sS'vomit'
p2634
g3
sS'permissible'
p2635
g10
sS'soundness'
p2636
g10
sS'sweeping'
p2637
g10
sS'irrationality'
p2638
g3
sS'trustworthiness'
p2639
g10
sS'desperately'
p2640
g3
sS'bless'
p2641
g10
sS'predatory'
p2642
g3
sS'restless'
p2643
g3
sS'exasperated'
p2644
g3
sS'bickering'
p2645
g3
sS'irreconcilable'
p2646
g3
sS'deride'
p2647
g3
sS'absurdity'
p2648
g3
sS'anarchy'
p2649
g3
sS'noiseless'
p2650
g10
sS'dominates'
p2651
g10
sS'trusty'
p2652
g10
sS'presumptuous'
p2653
g3
sS'unnatural'
p2654
g3
sS'ill-tempered'
p2655
g3
sS'jolly'
p2656
g10
sS'dominated'
p2657
g10
sS'blundering'
p2658
g3
sS'issue'
p2659
g3
sS'expansive'
p2660
g10
sS'dictatorial'
p2661
g3
sS'dirt'
p2662
g3
sS'favored'
p2663
g10
sS'misstatement'
p2664
g3
sS'brightest'
p2665
g10
sS'dire'
p2666
g3
sS'desiccate'
p2667
g3
sS'hapless'
p2668
g3
sS'bash'
p2669
g3
sS'revolutionary'
p2670
g10
sS'execrate'
p2671
g3
sS'unresolved'
p2672
g3
sS'brazenly'
p2673
g3
sS'terribly'
p2674
g3
sS'cataclysmically'
p2675
g3
sS'avariciously'
p2676
g3
sS'neglected'
p2677
g3
sS'apocalypse'
p2678
g3
sS'craps'
p2679
g3
sS'effortless'
p2680
g10
sS'mist'
p2681
g3
sS'miss'
p2682
g3
sS'prohibitively'
p2683
g3
sS'ostracize'
p2684
g3
sS'blossom'
p2685
g10
sS'fatcats'
p2686
g3
sS'obtainable'
p2687
g10
sS'wonderful'
p2688
g10
sS'merciless'
p2689
g3
sS'fervidly'
p2690
g10
sS'trapped'
p2691
g3
sS'obstructs'
p2692
g3
sS'gimmicking'
p2693
g3
sS'adulate'
p2694
g10
sS'boredom'
p2695
g3
sS'2-faced'
p2696
g3
sS'squeaky'
p2697
g3
sS'kindly'
p2698
g10
sS'lament'
p2699
g3
sS'miseries'
p2700
g3
sS'impersonal'
p2701
g3
sS'squeaks'
p2702
g3
sS'breakups'
p2703
g3
sS'battering'
p2704
g3
sS'sty'
p2705
g3
sS'phobic'
p2706
g3
sS'phobia'
p2707
g3
sS'overstate'
p2708
g3
sS'cuplrit'
p2709
g3
sS'affirmative'
p2710
g10
sS'randomly'
p2711
g3
sS'ecstatically'
p2712
g10
sS'douchebags'
p2713
g3
sS'cumbersome'
p2714
g3
sS'vulnerable'
p2715
g3
sS'lie'
p2716
g3
sS'evasion'
p2717
g3
sS'cave'
p2718
g3
sS'useless'
p2719
g3
sS'aggravating'
p2720
g3
sS'hell-bent'
p2721
g3
sS'unaccessible'
p2722
g3
sS'plunder'
p2723
g3
sS'hothouse'
p2724
g3
sS'diametrically'
p2725
g3
sS'viciously'
p2726
g3
sS'sturdy'
p2727
g10
sS'smoulder'
p2728
g3
sS'clear'
p2729
g10
sS'slumpping'
p2730
g3
sS'unreasonable'
p2731
g3
sS'unreasonably'
p2732
g3
sS'clean'
p2733
g10
sS'fainthearted'
p2734
g3
sS'naively'
p2735
g3
sS'dissemble'
p2736
g3
sS'perseverance'
p2737
g10
sS'ennoble'
p2738
g10
sS'languid'
p2739
g3
sS'acerbic'
p2740
g3
sS'flicker'
p2741
g3
sS'meticulously'
p2742
g10
sS'top-notch'
p2743
g10
sS'impressively'
p2744
g10
sS'intransigence'
p2745
g3
sS'distressing'
p2746
g3
sS'torturously'
p2747
g3
sS'paranoid'
p2748
g3
sS'inadvisably'
p2749
g3
sS'paranoia'
p2750
g3
sS'polemize'
p2751
g3
sS'steadiness'
p2752
g10
sS'beauteous'
p2753
g10
sS'inadvisable'
p2754
g3
sS'flighty'
p2755
g3
sS'hardened'
p2756
g3
sS'repulsing'
p2757
g3
sS'antithetical'
p2758
g3
sS'strut'
p2759
g3
sS'famous'
p2760
g10
sS'virtuously'
p2761
g10
sS'throttle'
p2762
g3
sS'chasten'
p2763
g3
sS'sacrificed'
p2764
g3
sS'recommendations'
p2765
g10
sS'hype'
p2766
g3
sS'courteous'
p2767
g10
sS'cramp'
p2768
g3
sS'disapproving'
p2769
g3
sS'irredeemably'
p2770
g3
sS'sidetracked'
p2771
g3
sS'irredeemable'
p2772
g3
sS'horrid'
p2773
g3
sS'wow'
p2774
g10
sS'insightfully'
p2775
g10
sS'back-wood'
p2776
g3
sS'plush'
p2777
g10
sS'woo'
p2778
g10
sS'won'
p2779
g10
sS'incompatibility'
p2780
g3
sS'breathlessness'
p2781
g10
sS'stagnation'
p2782
g3
sS'involuntarily'
p2783
g3
sS'notoriously'
p2784
g3
sS'dullard'
p2785
g3
sS'timidly'
p2786
g3
sS'poorer'
p2787
g3
sS'aggrieve'
p2788
g3
sS'invisible'
p2789
g3
sS'abruptly'
p2790
g3
sS'useable'
p2791
g10
sS'adorer'
p2792
g10
sS'adored'
p2793
g10
sS'liked'
p2794
g10
sS'likes'
p2795
g10
sS'turbulent'
p2796
g3
sS'mind-blowing'
p2797
g10
sS'reprehensive'
p2798
g3
sS'incompatability'
p2799
g3
sS'damn'
p2800
g3
sS'coarse'
p2801
g3
sS'threaten'
p2802
g3
sS'mockingly'
p2803
g3
sS'decisiveness'
p2804
g10
sS'derisiveness'
p2805
g3
sS'excitingly'
p2806
g10
sS'doggedly'
p2807
g3
sS'disruptive'
p2808
g3
sS'intriguing'
p2809
g10
sS'overplay'
p2810
g3
sS'spellbindingly'
p2811
g10
sS'conspirator'
p2812
g3
sS'unconvincingly'
p2813
g3
sS'fleed'
p2814
g3
sS'wimpy'
p2815
g3
sS'dusty'
p2816
g3
sS'smart'
p2817
g10
sS'endanger'
p2818
g3
sS'loot'
p2819
g3
sS'unkindly'
p2820
g3
sS'fleer'
p2821
g3
sS'uncompromising'
p2822
g3
sS'misjudge'
p2823
g3
sS'costly'
p2824
g3
sS'hoax'
p2825
g3
sS'flakieness'
p2826
g3
sS'ready'
p2827
g10
sS'blissful'
p2828
g10
sS'testy'
p2829
g3
sS'discredit'
p2830
g3
sS'madly'
p2831
g3
sS'grand'
p2832
g10
sS'impious'
p2833
g3
sS'conflict'
p2834
g3
sS'sham'
p2835
g3
sS'misguidance'
p2836
g3
sS'covetous'
p2837
g3
sS'fatty'
p2838
g3
sS'bonus'
p2839
g10
sS'overweight'
p2840
g3
sS'censure'
p2841
g3
sS'decency'
p2842
g10
sS'priceless'
p2843
g10
sS'haunting'
p2844
g3
sS'flirty'
p2845
g3
sS'anxious'
p2846
g3
sS'grind'
p2847
g3
sS'uproariously'
p2848
g3
sS'clears'
p2849
g10
sS'appalled'
p2850
g3
sS'grossly'
p2851
g3
sS'chore'
p2852
g3
sS'pillory'
p2853
g3
sS'ignoble'
p2854
g3
sS'devastatingly'
p2855
g3
sS'cocky'
p2856
g3
sS'insolent'
p2857
g3
sS'vengefully'
p2858
g3
sS'botch'
p2859
g3
sS'decayed'
p2860
g3
sS'exhilarate'
p2861
g10
sS'bonny'
p2862
g10
sS'harmonize'
p2863
g10
sS'overthrows'
p2864
g3
sS'fabulously'
p2865
g10
sS'lacking'
p2866
g3
sS'tiring'
p2867
g3
sS'enthusiastically'
p2868
g10
sS'maltreatment'
p2869
g3
sS'stagnate'
p2870
g3
sS'mistrustfully'
p2871
g3
sS'strife'
p2872
g3
sS'popular'
p2873
g10
sS'self-sufficient'
p2874
g10
sS'well-connected'
p2875
g10
sS'urgent'
p2876
g3
sS'pathetically'
p2877
g3
sS'impoverish'
p2878
g3
sS'trendy'
p2879
g10
sS'anti-american'
p2880
g3
sS'bruising'
p2881
g3
sS'fanfare'
p2882
g10
sS'savage'
p2883
g3
sS'dilapidated'
p2884
g3
sS'beneficially'
p2885
g10
sS'exceeding'
p2886
g10
sS'providence'
p2887
g10
sS'trouble-free'
p2888
g10
sS'costlier'
p2889
g3
sS'hypocritical'
p2890
g3
sS'benefactor'
p2891
g10
sS'suavely'
p2892
g10
sS'rue'
p2893
g3
sS'negatives'
p2894
g3
sS'ache'
p2895
g3
sS'taboo'
p2896
g3
sS'subtract'
p2897
g3
sS'rut'
p2898
g3
sS'shine'
p2899
g10
sS'faith'
p2900
g10
sS'ill-defined'
p2901
g3
sS'magnanimous'
p2902
g10
sS'soft'
p2903
g10
sS'lucidly'
p2904
g10
sS'shiny'
p2905
g10
sS'pluses'
p2906
g10
sS'miracles'
p2907
g10
sS'misbehavior'
p2908
g3
sS'panders'
p2909
g3
sS'nonsense'
p2910
g3
sS'dissatisfaction'
p2911
g3
sS'smelly'
p2912
g3
sS'conscientious'
p2913
g10
sS'smells'
p2914
g3
sS'issue-free'
p2915
g10
sS'infuriating'
p2916
g3
sS'incongruously'
p2917
g3
sS'calumny'
p2918
g3
sS'healthful'
p2919
g10
sS'inept'
p2920
g3
sS'disaffirm'
p2921
g3
sS'properly'
p2922
g10
sS'tragically'
p2923
g3
sS'well-made'
p2924
g10
sS'warlike'
p2925
g3
sS'dull'
p2926
g3
sS'ecstasies'
p2927
g10
sS'prestigious'
p2928
g10
sS'cramping'
p2929
g3
sS'swagger'
p2930
g3
sS'loopholes'
p2931
g3
sS'intuitive'
p2932
g10
sS'malodorous'
p2933
g3
sS'foresight'
p2934
g10
sS'loving'
p2935
g10
sS'castrated'
p2936
g3
sS'seethe'
p2937
g3
sS'unwise'
p2938
g3
sS'evocative'
p2939
g10
sS'sullen'
p2940
g3
sS'nag'
p2941
g3
sS'objection'
p2942
g3
sS'fears'
p2943
g3
sS'condescension'
p2944
g3
sS'inglorious'
p2945
g3
sS'smiles'
p2946
g10
sS'overbalanced'
p2947
g3
sS'bravado'
p2948
g3
sS'drag'
p2949
g3
sS'ruthlessly'
p2950
g3
sS'heroine'
p2951
g10
sS'upgradable'
p2952
g10
sS'wellbeing'
p2953
g10
sS'imprecise'
p2954
g3
sS'evenly'
p2955
g10
sS'irretating'
p2956
g3
sS'cheerful'
p2957
g10
sS'humid'
p2958
g3
sS'egomania'
p2959
g3
sS'compact'
p2960
g10
sS'stunned'
p2961
g10
sS'blindingly'
p2962
g3
sS'arrogance'
p2963
g3
sS'loathsomely'
p2964
g3
sS'friendly'
p2965
g10
sS'virtuous'
p2966
g10
sS'murderous'
p2967
g3
sS'moribund'
p2968
g3
sS'prudence'
p2969
g10
sS'felicity'
p2970
g10
sS'discouragement'
p2971
g3
sS'defamatory'
p2972
g3
sS'excruciating'
p2973
g3
sS'stiff'
p2974
g3
sS'compassionate'
p2975
g10
sS'nourishing'
p2976
g10
sS'catastrophes'
p2977
g3
sS'exasperatingly'
p2978
g3
sS'sedentary'
p2979
g3
sS'delightfulness'
p2980
g10
sS'pretend'
p2981
g3
sS'picket'
p2982
g3
sS'encroachment'
p2983
g3
sS'ardent'
p2984
g10
sS'languor'
p2985
g3
sS'pitilessly'
p2986
g3
sS'exacerbate'
p2987
g3
sS'unhelpful'
p2988
g3
sS'rotten'
p2989
g3
sS'volatile'
p2990
g3
sS'self-defeating'
p2991
g3
sS'poky'
p2992
g3
sS'melancholy'
p2993
g3
sS'denunciations'
p2994
g3
sS'upsetting'
p2995
g3
sS'radicals'
p2996
g3
sS'bowdlerize'
p2997
g3
sS'conceited'
p2998
g3
sS'enterprising'
p2999
g10
sS'adulterate'
p3000
g3
sS'commendably'
p3001
g10
sS'benevolence'
p3002
g10
sS'avaricious'
p3003
g3
sS'repel'
p3004
g3
sS'commendable'
p3005
g10
sS'danger'
p3006
g3
sS'win'
p3007
g10
sS'worthy'
p3008
g10
sS'apprehensive'
p3009
g3
sS'unwillingly'
p3010
g3
sS'infest'
p3011
g3
sS'gimmick'
p3012
g3
sS'manipulate'
p3013
g3
sS'subsidizes'
p3014
g10
sS'crap'
p3015
g3
sS'agreeably'
p3016
g10
sS'well-informed'
p3017
g10
sS'pain-free'
p3018
g10
sS'contentment'
p3019
g10
sS'subsidized'
p3020
g10
sS'agreeable'
p3021
g10
sS'noisy'
p3022
g3
sS'indefensible'
p3023
g3
sS'betray'
p3024
g3
sS'cackle'
p3025
g3
sS'inconsiderate'
p3026
g3
sS'self-criticism'
p3027
g3
sS'charming'
p3028
g10
sS'insincerity'
p3029
g3
sS'felicitate'
p3030
g10
sS'unfaithful'
p3031
g3
sS'rivalry'
p3032
g3
sS'lapse'
p3033
g3
sS'recession'
p3034
g3
sS'irreparable'
p3035
g3
sS'ineffectualness'
p3036
g3
sS'beleaguer'
p3037
g3
sS'inviolate'
p3038
g10
sS'fearsome'
p3039
g3
sS'invincibility'
p3040
g10
sS'defective'
p3041
g3
sS'picturesque'
p3042
g10
sS'ambivalence'
p3043
g3
sS'neurotic'
p3044
g3
sS'spurious'
p3045
g3
sS'deplore'
p3046
g3
sS'mislike'
p3047
g3
sS'furiously'
p3048
g3
sS'luxuriously'
p3049
g10
sS'slowwww'
p3050
g3
sS'fatigue'
p3051
g3
sS'insufficient'
p3052
g3
sS'debasement'
p3053
g3
sS'flagrantly'
p3054
g3
sS'advocated'
p3055
g10
sS'advocates'
p3056
g10
sS'alienation'
p3057
g3
sS'womanizer'
p3058
g3
sS'fastest'
p3059
g10
sS'feeblely'
p3060
g3
sS'rebellious'
p3061
g3
sS'less-developed'
p3062
g3
sS'brittle'
p3063
g3
sS'subversive'
p3064
g3
sS'brood'
p3065
g3
sS'exclusion'
p3066
g3
sS'corruptted'
p3067
g3
sS'sardonically'
p3068
g3
sS'demoralize'
p3069
g3
sS'outshone'
p3070
g10
sS'shimmeringly'
p3071
g10
sS'optimal'
p3072
g10
sS'handy'
p3073
g10
sS'masters'
p3074
g10
sS'spoon-feed'
p3075
g3
sS'laconic'
p3076
g3
sS'uncaring'
p3077
g3
sS'illuminate'
p3078
g10
sS'illuminati'
p3079
g10
sS'exceeded'
p3080
g10
sS'gallant'
p3081
g10
sS'lukewarm'
p3082
g3
sS'revoltingly'
p3083
g3
sS'pertinacity'
p3084
g3
sS'confess'
p3085
g3
sS'unlawful'
p3086
g3
sS'shambles'
p3087
g3
sS'thriving'
p3088
g10
sS'obsessive'
p3089
g3
sS'obsess'
p3090
g3
sS'achievements'
p3091
g10
sS'trashy'
p3092
g3
sS'discontinuity'
p3093
g3
sS'humiliating'
p3094
g3
sS'dissenter'
p3095
g3
sS'sneer'
p3096
g3
sS'shrew'
p3097
g3
sS'drowning'
p3098
g3
sS'corrosion'
p3099
g3
sS'hostile'
p3100
g3
sS'galling'
p3101
g3
sS'keen'
p3102
g10
sS'repulsed'
p3103
g3
sS'stainless'
p3104
g10
sS'softer'
p3105
g10
sS'succeeds'
p3106
g10
sS'confuse'
p3107
g3
sS'unsupported'
p3108
g3
sS'rectifying'
p3109
g10
sS'bitch'
p3110
g3
sS'eminence'
p3111
g10
sS'precisely'
p3112
g10
sS'stringently'
p3113
g3
sS'dump'
p3114
g3
sS'durable'
p3115
g10
sS'unequivocal'
p3116
g10
sS'attack'
p3117
g3
sS'gainful'
p3118
g10
sS'intelligence'
p3119
g10
sS'perfectly'
p3120
g10
sS'terribleness'
p3121
g3
sS'punish'
p3122
g3
sS'feint'
p3123
g3
sS'manipulation'
p3124
g3
sS'fuzzy'
p3125
g3
sS'overwhelming'
p3126
g3
sS'apologist'
p3127
g3
sS'exultingly'
p3128
g10
sS'spurn'
p3129
g3
sS'worthlessly'
p3130
g3
sS'aspiration'
p3131
g10
sS'beg'
p3132
g3
sS'cartoonish'
p3133
g3
sS'transgression'
p3134
g3
sS'snazzy'
p3135
g10
sS'insignificance'
p3136
g3
sS'distinguished'
p3137
g10
sS'earsplitting'
p3138
g3
sS'villains'
p3139
g3
sS'plasticky'
p3140
g3
sS'sardonic'
p3141
g3
sS'disapointment'
p3142
g3
sS'assurances'
p3143
g10
sS'killjoy'
p3144
g3
sS'saintly'
p3145
g10
sS'bastard'
p3146
g3
sS'opinionated'
p3147
g3
sS'vibrantly'
p3148
g10
sS'pretentiously'
p3149
g3
sS'deceive'
p3150
g3
sS'passionately'
p3151
g10
sS'unleash'
p3152
g3
sS'resplendent'
p3153
g10
sS'vengeance'
p3154
g3
sS'demise'
p3155
g3
sS'glistening'
p3156
g10
sS'nuisance'
p3157
g3
sS'expired'
p3158
g3
sS'bloodthirsty'
p3159
g3
sS'scrambles'
p3160
g3
sS'upset'
p3161
g3
sS'prickle'
p3162
g3
sS'astonishing'
p3163
g10
sS'scrambled'
p3164
g3
sS'distinctive'
p3165
g10
sS'lawbreaker'
p3166
g3
sS'qualms'
p3167
g3
sS'unsettle'
p3168
g3
sS'reprehensible'
p3169
g3
sS'violation'
p3170
g3
sS'bigotries'
p3171
g3
sS'farfetched'
p3172
g3
sS'well-being'
p3173
g10
sS'passe'
p3174
g3
sS'molest'
p3175
g3
sS'reprehensibly'
p3176
g3
sS'envy'
p3177
g10
sS'untimely'
p3178
g3
sS'unfinished'
p3179
g3
sS'idiocies'
p3180
g3
sS'hopeful'
p3181
g10
sS'brighten'
p3182
g10
sS'rash'
p3183
g3
sS'bug'
p3184
g3
sS'brighter'
p3185
g10
sS'destabilisation'
p3186
g3
sS'betrayals'
p3187
g3
sS'catastrophies'
p3188
g3
sS'infernal'
p3189
g3
sS'gratify'
p3190
g10
sS'hassles'
p3191
g3
sS'sloww'
p3192
g3
sS'crumbling'
p3193
g3
sS'exaltation'
p3194
g10
sS'woe'
p3195
g3
sS'hassled'
p3196
g3
sS'fallout'
p3197
g3
sS'marvels'
p3198
g10
sS'imperious'
p3199
g3
sS'dejected'
p3200
g3
sS'oppressively'
p3201
g3
sS'berserk'
p3202
g3
sS'hollow'
p3203
g3
sS'gush'
p3204
g10
sS'solicitous'
p3205
g10
sS'accuses'
p3206
g3
sS'orphan'
p3207
g3
sS'freeze'
p3208
g3
sS'unfavorable'
p3209
g3
sS'desperate'
p3210
g3
sS'rifts'
p3211
g3
sS'humane'
p3212
g10
sS'luckiest'
p3213
g10
sS'outrageousness'
p3214
g3
sS'nightmare'
p3215
g3
sS'illusory'
p3216
g3
sS'maneuverable'
p3217
g10
sS'beautify'
p3218
g10
sS'correctly'
p3219
g10
sS'horrible'
p3220
g3
sS'sabotage'
p3221
g3
sS'believeable'
p3222
g10
sS'sorely'
p3223
g3
sS'laid-off'
p3224
g3
sS'interfere'
p3225
g3
sS'bemoan'
p3226
g3
sS'merry'
p3227
g10
sS'approval'
p3228
g10
sS'precious'
p3229
g10
sS'mulish'
p3230
g3
sS'donside'
p3231
g3
sS'haughty'
p3232
g3
sS'undetermined'
p3233
g3
sS'inundate'
p3234
g3
sS'diligent'
p3235
g10
sS'monstrously'
p3236
g3
sS'succeed'
p3237
g10
sS'propagandize'
p3238
g3
sS'spewed'
p3239
g3
sS'cynicism'
p3240
g3
sS'cohere'
p3241
g10
sS'lawbreaking'
p3242
g3
sS'yay'
p3243
g10
sS'discrimination'
p3244
g3
sS'wowing'
p3245
g10
sS'frenetically'
p3246
g3
sS'immense'
p3247
g10
sS'slowly'
p3248
g3
sS'geekier'
p3249
g10
sS'intefere'
p3250
g3
sS'fibber'
p3251
g3
sS'shameless'
p3252
g3
sS'intimidate'
p3253
g3
sS'pandemonium'
p3254
g3
sS'harden'
p3255
g3
sS'inaccurately'
p3256
g3
sS'hearten'
p3257
g10
sS'ominously'
p3258
g3
sS'odder'
p3259
g3
sS'sensitive'
p3260
g10
sS'blasphemous'
p3261
g3
sS'calamitous'
p3262
g3
sS'strange'
p3263
g3
sS'fanatics'
p3264
g3
sS'hardliner'
p3265
g3
sS'effusively'
p3266
g10
sS'impeccably'
p3267
g10
sS'rightfully'
p3268
g10
sS'eccentric'
p3269
g3
sS'prodigiously'
p3270
g10
sS'abounds'
p3271
g10
sS'sagged'
p3272
g3
sS'fierce'
p3273
g3
sS'impeccable'
p3274
g10
sS'endearing'
p3275
g10
sS'destruction'
p3276
g3
sS'rift'
p3277
g3
sS'scarcely'
p3278
g3
sS'distraughtness'
p3279
g3
sS'glower'
p3280
g3
sS'variety'
p3281
g10
sS'well'
p3282
g10
sS'insurmountably'
p3283
g3
sS'nebulous'
p3284
g3
sS'rife'
p3285
g3
sS'insurmountable'
p3286
g3
sS'risk-free'
p3287
g10
sS'user-friendly'
p3288
g10
sS'draconian'
p3289
g3
sS'underdog'
p3290
g3
sS'attractively'
p3291
g10
sS'discord'
p3292
g3
sS'insinuating'
p3293
g3
sS'accurate'
p3294
g10
sS'mistaken'
p3295
g3
sS'mistakes'
p3296
g3
sS'inefficacy'
p3297
g3
sS'skill'
p3298
g10
sS'reaffirmation'
p3299
g10
sS'run-down'
p3300
g3
sS'killed'
p3301
g3
sS'indignation'
p3302
g3
sS'ample'
p3303
g10
sS'crushed'
p3304
g3
sS'livid'
p3305
g3
sS'burden'
p3306
g3
sS'hypocricy'
p3307
g3
sS'amply'
p3308
g10
sS'prominent'
p3309
g10
sS'accomodative'
p3310
g10
sS'gallantly'
p3311
g10
sS'lost'
p3312
g3
sS'lose'
p3313
g3
sS'adversity'
p3314
g3
sS'glare'
p3315
g3
sS'warmer'
p3316
g10
sS'liking'
p3317
g10
sS'leery'
p3318
g3
sS'helplessness'
p3319
g3
sS'insupportable'
p3320
g3
sS'eyesore'
p3321
g3
sS'appreciative'
p3322
g10
sS'rewarding'
p3323
g10
sS'inflammation'
p3324
g3
sS'humorously'
p3325
g10
sS'limitations'
p3326
g3
sS'inaccurate'
p3327
g3
sS'decline'
p3328
g3
sS'poignant'
p3329
g10
sS'imperfectly'
p3330
g3
sS'problem-free'
p3331
g10
sS'misrepresentation'
p3332
g3
sS'inexpiable'
p3333
g3
sS'freedom'
p3334
g10
sS'sinister'
p3335
g3
sS'compatible'
p3336
g10
sS'maladjustment'
p3337
g3
sS'arrogantly'
p3338
g3
sS'eloquently'
p3339
g10
sS'lovable'
p3340
g10
sS'articulate'
p3341
g10
sS'rigidness'
p3342
g3
sS'secretive'
p3343
g3
sS'pointless'
p3344
g3
sS'doubtless'
p3345
g10
sS'godsend'
p3346
g10
sS'rejoice'
p3347
g10
sS'impatience'
p3348
g3
sS'lagged'
p3349
g3
sS'funnily'
p3350
g3
sS'acrimoniously'
p3351
g3
sS'peacekeepers'
p3352
g10
sS'elate'
p3353
g10
sS'corrosions'
p3354
g3
sS'treacherous'
p3355
g3
sS'hazardous'
p3356
g3
sS'admonish'
p3357
g3
sS'gain'
p3358
g10
sS'wince'
p3359
g3
sS'exaltingly'
p3360
g10
sS'grieve'
p3361
g3
sS'scoffingly'
p3362
g3
sS'accommodative'
p3363
g10
sS'cruel'
p3364
g3
sS'limit'
p3365
g3
sS'diligently'
p3366
g10
sS'upsets'
p3367
g3
sS'twist'
p3368
g3
sS'rumors'
p3369
g3
sS'offensive'
p3370
g3
sS'spellbinding'
p3371
g10
sS'crummy'
p3372
g3
sS'stumps'
p3373
g3
sS'suspiciously'
p3374
g3
sS'blameworthy'
p3375
g3
sS'ecstatic'
p3376
g10
sS'astounding'
p3377
g10
sS'insults'
p3378
g3
sS'inescapably'
p3379
g3
sS'dragoon'
p3380
g3
sS'stab'
p3381
g3
sS'animosity'
p3382
g3
sS'deter'
p3383
g3
sS'disconsolation'
p3384
g3
sS'unsteadily'
p3385
g3
sS'pardon'
p3386
g10
sS'dissolution'
p3387
g3
sS'dynamic'
p3388
g10
sS'obstruction'
p3389
g3
sS'protest'
p3390
g3
sS'perverted'
p3391
g3
sS'offenses'
p3392
g3
sS'unfeeling'
p3393
g3
sS'sagely'
p3394
g10
sS'sorry'
p3395
g3
sS'bulkier'
p3396
g3
sS'slow-moving'
p3397
g3
sS'appal'
p3398
g3
sS'destitution'
p3399
g3
sS'misunderstanding'
p3400
g3
sS'smack'
p3401
g3
sS'reforms'
p3402
g10
sS'courageous'
p3403
g10
sS'deplorably'
p3404
g3
sS'mistified'
p3405
g3
sS'convenience'
p3406
g10
sS'irrationally'
p3407
g3
sS'enhance'
p3408
g10
sS'deplorable'
p3409
g3
sS'discriminatory'
p3410
g3
sS'tenuous'
p3411
g3
sS'concise'
p3412
g10
sS'subordinate'
p3413
g3
sS'cooperatively'
p3414
g10
sS'pander'
p3415
g3
sS'gawky'
p3416
g3
sS'inelegance'
p3417
g3
sS'ignominiously'
p3418
g3
sS'desirous'
p3419
g10
sS'hatefully'
p3420
g3
sS'hazy'
p3421
g3
sS'haze'
p3422
g3
sS'sunder'
p3423
g3
sS'reverently'
p3424
g10
sS'undisputed'
p3425
g10
sS'preferes'
p3426
g10
sS'harbors'
p3427
g3
sS'repugnance'
p3428
g3
sS'deadbeat'
p3429
g3
sS'weirdly'
p3430
g3
sS'refinement'
p3431
g10
sS'fuck'
p3432
g3
sS'over-priced'
p3433
g3
sS'inefficiently'
p3434
g3
sS'harass'
p3435
g3
sS'flees'
p3436
g3
sS'superstitious'
p3437
g3
sS'lucrative'
p3438
g10
sS'suitable'
p3439
g10
sS'menial'
p3440
g3
sS'intrigue'
p3441
g10
sS'fantastic'
p3442
g10
sS'cushy'
p3443
g10
sS'dehumanize'
p3444
g3
sS'overheat'
p3445
g3
sS'quibbles'
p3446
g3
sS'leaks'
p3447
g3
sS'calm'
p3448
g10
sS'recommend'
p3449
g10
sS'leaky'
p3450
g3
sS'wary'
p3451
g3
sS'demon'
p3452
g3
sS'warp'
p3453
g3
sS'disruption'
p3454
g3
sS'warm'
p3455
g10
sS'frenzy'
p3456
g3
sS'qualm'
p3457
g3
sS'confound'
p3458
g3
sS'somber'
p3459
g3
sS'headway'
p3460
g10
sS'achievible'
p3461
g10
sS'fresher'
p3462
g10
sS'gaff'
p3463
g3
sS'frighten'
p3464
g3
sS'degenerate'
p3465
g3
sS'untruthful'
p3466
g3
sS'gleefully'
p3467
g10
sS'loathe'
p3468
g3
sS'invidiousness'
p3469
g3
sS'faults'
p3470
g3
sS'stupidity'
p3471
g3
sS'faulty'
p3472
g3
sS'quibble'
p3473
g3
sS'disconsolately'
p3474
g3
sS'indignity'
p3475
g3
sS'vicious'
p3476
g3
sS'misfit'
p3477
g3
sS'immoral'
p3478
g3
sS'ambivalent'
p3479
g3
sS'overtaken'
p3480
g10
sS'longingly'
p3481
g3
sS'fictitious'
p3482
g3
sS'uninsured'
p3483
g3
sS'overtakes'
p3484
g10
sS'gratification'
p3485
g10
sS'impossiblity'
p3486
g3
sS'intimidatingly'
p3487
g3
sS'despondently'
p3488
g3
sS'responsive'
p3489
g10
sS'partisans'
p3490
g3
sS'wickedness'
p3491
g3
sS'pleasurably'
p3492
g10
sS'rremediable'
p3493
g3
sS'alluringly'
p3494
g10
sS'better'
p3495
g10
sS'stalemate'
p3496
g3
sS'unintelligile'
p3497
g3
sS'pleasurable'
p3498
g10
sS'weakness'
p3499
g3
sS'unemployed'
p3500
g3
sS'intimidation'
p3501
g3
sS'aborted'
p3502
g3
sS'indulge'
p3503
g3
sS'rhapsodize'
p3504
g3
sS'itchy'
p3505
g3
sS'rhetoric'
p3506
g3
sS'mistrust'
p3507
g3
sS'superficiality'
p3508
g3
sS'unpleasantries'
p3509
g3
sS'pepping'
p3510
g10
sS'loneliness'
p3511
g3
sS'luck'
p3512
g10
sS'interruption'
p3513
g3
sS'overbearingly'
p3514
g3
sS'combust'
p3515
g3
sS'caustic'
p3516
g3
sS'dawn'
p3517
g10
sS'contend'
p3518
g3
sS'unbound'
p3519
g10
sS'sluts'
p3520
g3
sS'restricted'
p3521
g3
sS'oppressors'
p3522
g3
sS'ranted'
p3523
g3
sS'revolting'
p3524
g3
sS'sparkle'
p3525
g10
sS'easiness'
p3526
g10
sS'sluggish'
p3527
g3
sS'instigate'
p3528
g3
sS'fave'
p3529
g10
sS'revenge'
p3530
g3
sS'struggle'
p3531
g3
sS'entrap'
p3532
g3
sS'warmhearted'
p3533
g10
sS'greasy'
p3534
g3
sS'zaps'
p3535
g3
sS'saggy'
p3536
g3
sS'dirtbags'
p3537
g3
sS'attune'
p3538
g10
sS'heckle'
p3539
g3
sS'loud'
p3540
g3
sS'enraged'
p3541
g3
sS'naughty'
p3542
g3
sS'reassure'
p3543
g10
sS'picketed'
p3544
g3
sS'deplete'
p3545
g3
sS'downside'
p3546
g3
sS'masterfully'
p3547
g10
sS'nastiness'
p3548
g3
sS'discompose'
p3549
g3
sS'debase'
p3550
g3
sS'dumbfounded'
p3551
g10
sS'twisted'
p3552
g3
sS'enthral'
p3553
g10
sS'brainwash'
p3554
g3
sS'lovelorn'
p3555
g3
sS'horrendously'
p3556
g3
sS'peculiar'
p3557
g3
sS'symptom'
p3558
g3
sS'congratulatory'
p3559
g10
sS'anxiety'
p3560
g3
sS'affront'
p3561
g3
sS'bitterness'
p3562
g3
sS'well-positioned'
p3563
g10
sS'fabulous'
p3564
g10
sS'silly'
p3565
g3
sS'deserving'
p3566
g10
sS'spoiled'
p3567
g3
sS'divisiveness'
p3568
g3
sS'hallucination'
p3569
g3
sS'far-fetched'
p3570
g3
sS'fathomless'
p3571
g3
sS'rattle'
p3572
g3
sS'modern'
p3573
g10
sS'low-priced'
p3574
g10
sS'horde'
p3575
g3
sS'distains'
p3576
g3
sS'impotent'
p3577
g3
sS'demoralizing'
p3578
g3
sS'worsening'
p3579
g3
sS'inconsistence'
p3580
g3
sS'mashed'
p3581
g3
sS'accurately'
p3582
g10
sS'chatterbox'
p3583
g3
sS'savvy'
p3584
g10
sS'inconsistency'
p3585
g3
sS'treasonous'
p3586
g3
sS'mushy'
p3587
g3
sS'alarm'
p3588
g3
sS'impudently'
p3589
g3
sS'solemn'
p3590
g3
sS'ripoff'
p3591
g3
sS'romanticize'
p3592
g10
sS'annoyed'
p3593
g3
sS'discontent'
p3594
g3
sS'rapture'
p3595
g10
sS'brutalities'
p3596
g3
sS'brilliance'
p3597
g10
sS'uneasiness'
p3598
g3
sS'discourteous'
p3599
g3
sS'incoherently'
p3600
g3
sS'capitulate'
p3601
g3
sS'undignified'
p3602
g3
sS'debts'
p3603
g3
sS'cripple'
p3604
g3
sS'brimstone'
p3605
g3
sS'dismayingly'
p3606
g3
sS'hoard'
p3607
g3
sS'raptureous'
p3608
g10
sS'colorful'
p3609
g10
sS'rejoicing'
p3610
g10
sS'prospros'
p3611
g10
sS'blur'
p3612
g3
sS'doddering'
p3613
g3
sS'slanderous'
p3614
g3
sS'smug'
p3615
g3
sS'discoutinous'
p3616
g3
sS'broken-hearted'
p3617
g3
sS'non-violence'
p3618
g10
sS'illegitimate'
p3619
g3
sS'depressed'
p3620
g3
sS'bad'
p3621
g3
sS'enchant'
p3622
g10
sS'ethical'
p3623
g10
sS'unworthy'
p3624
g3
sS'fascinating'
p3625
g10
sS'rockstar'
p3626
g10
sS'blameless'
p3627
g10
sS'winnable'
p3628
g10
sS'interruptions'
p3629
g3
sS'mournfully'
p3630
g3
sS'inappropriate'
p3631
g3
sS'scrap'
p3632
g3
sS'insolently'
p3633
g3
sS'disprove'
p3634
g3
sS'simplest'
p3635
g10
sS'lethargic'
p3636
g3
sS'enrapt'
p3637
g10
sS'lazy'
p3638
g3
sS'obsessiveness'
p3639
g3
sS'weary'
p3640
g3
sS'uncreative'
p3641
g3
sS'disorderly'
p3642
g3
sS'pertinacious'
p3643
g3
sS'distinction'
p3644
g10
sS'contribution'
p3645
g10
sS'overstatements'
p3646
g3
sS'exemplary'
p3647
g10
sS'incessant'
p3648
g3
sS'awesomely'
p3649
g10
sS'lowly'
p3650
g3
sS'speedily'
p3651
g10
sS'unlamentably'
p3652
g3
sS'riled'
p3653
g3
sS'ingrate'
p3654
g3
sS'futility'
p3655
g3
sS'brand-new'
p3656
g10
sS'detrimental'
p3657
g3
sS'lovely'
p3658
g10
sS'unlamentable'
p3659
g3
sS'idol'
p3660
g10
sS'wheedle'
p3661
g3
sS'prosperous'
p3662
g10
sS'suppress'
p3663
g3
sS'disgruntle'
p3664
g3
sS'decrepit'
p3665
g3
sS'kudos'
p3666
g10
sS'regretted'
p3667
g3
sS'lunaticism'
p3668
g3
sS'distorts'
p3669
g3
sS'unpopular'
p3670
g3
sS'tank'
p3671
g3
sS'sly'
p3672
g3
sS'affirm'
p3673
g10
sS'ugly'
p3674
g3
sS'neat'
p3675
g10
sS'mangle'
p3676
g3
sS'pessimistic'
p3677
g3
sS'dummy-proof'
p3678
g10
sS'well-balanced'
p3679
g10
sS'teasingly'
p3680
g3
sS'defeated'
p3681
g10
sS'shame'
p3682
g3
sS'lugubrious'
p3683
g3
sS'sever'
p3684
g3
sS'complains'
p3685
g3
sS'overstated'
p3686
g3
sS'growl'
p3687
g3
sS'shimmering'
p3688
g10
sS'dismissive'
p3689
g3
sS'contaminate'
p3690
g3
sS'vibrates'
p3691
g3
sS'ergonomical'
p3692
g10
sS'opulent'
p3693
g10
sS'delight'
p3694
g10
sS'renaissance'
p3695
g10
sS'vibrated'
p3696
g3
sS'jealous'
p3697
g3
sS'scoldingly'
p3698
g3
sS'failing'
p3699
g3
sS'berate'
p3700
g3
sS'mockeries'
p3701
g3
sS'wasteful'
p3702
g3
sS'personages'
p3703
g10
sS'impending'
p3704
g3
sS'agile'
p3705
g10
sS'affinity'
p3706
g10
sS'involuntary'
p3707
g3
sS'perfunctory'
p3708
g3
sS'auspicious'
p3709
g10
sS'affability'
p3710
g10
sS'vanity'
p3711
g3
sS'nauseate'
p3712
g3
sS'fashionably'
p3713
g10
sS'unnecessary'
p3714
g3
sS'disillusioned'
p3715
g3
sS'confront'
p3716
g3
sS'notorious'
p3717
g3
sS'squander'
p3718
g3
sS'repudiate'
p3719
g3
sS'deaf'
p3720
g3
sS'dead'
p3721
g3
sS'revel'
p3722
g10
sS'amiable'
p3723
g10
sS'dense'
p3724
g3
sS'aggravation'
p3725
g3
sS'flounder'
p3726
g3
sS'plot'
p3727
g3
sS'concen'
p3728
g3
sS'burn'
p3729
g3
sS'blackmail'
p3730
g3
sS'confrontation'
p3731
g3
sS'super'
p3732
g10
sS'empowerment'
p3733
g10
sS'innuendo'
p3734
g3
sS'assault'
p3735
g3
sS'cliche'
p3736
g3
sS'thinner'
p3737
g10
sS'lied'
p3738
g3
sS'lier'
p3739
g3
sS'fumes'
p3740
g3
sS'overkill'
p3741
g3
sS'refined'
p3742
g10
sS'annoyance'
p3743
g3
sS'amazingly'
p3744
g10
sS'ill-sorted'
p3745
g3
sS'jealousy'
p3746
g3
sS'misbecome'
p3747
g3
sS'victorious'
p3748
g10
sS'counterproductive'
p3749
g3
sS'impassioned'
p3750
g10
sS'lurid'
p3751
g3
sS'starve'
p3752
g3
sS'immorality'
p3753
g3
sS'failure'
p3754
g3
sS'powerfully'
p3755
g10
sS'prettily'
p3756
g10
sS'surrender'
p3757
g3
sS'atrocities'
p3758
g3
sS'harmony'
p3759
g10
sS'invidiously'
p3760
g3
sS'afflictive'
p3761
g3
sS'horrifying'
p3762
g3
sS'propaganda'
p3763
g3
sS'tarnishes'
p3764
g3
sS'ingenuously'
p3765
g10
sS'classic'
p3766
g10
sS'blockhead'
p3767
g3
sS'sticky'
p3768
g3
sS'cure-all'
p3769
g10
sS'tarnished'
p3770
g3
sS'mediocre'
p3771
g3
sS'shit'
p3772
g3
sS'graft'
p3773
g3
sS'oversimplification'
p3774
g3
sS'discriminate'
p3775
g3
sS'polarisation'
p3776
g3
sS'authoritative'
p3777
g10
sS'disaccord'
p3778
g3
sS'excel'
p3779
g10
sS'maledict'
p3780
g3
sS'tardy'
p3781
g3
sS'roomier'
p3782
g10
sS'dies'
p3783
g3
sS'mangling'
p3784
g3
sS'unwell'
p3785
g3
sS'fell'
p3786
g3
sS'fruitlessly'
p3787
g3
sS'magnificence'
p3788
g10
sS'died'
p3789
g3
sS'inimically'
p3790
g3
sS'pertinaciously'
p3791
g3
sS'luckier'
p3792
g10
sS'restored'
p3793
g10
sS'overdue'
p3794
g3
sS'revoke'
p3795
g3
sS'vestiges'
p3796
g3
sS'abundant'
p3797
g10
sS'resourceful'
p3798
g10
sS'misread'
p3799
g3
sS'suicide'
p3800
g3
sS'deceitful'
p3801
g3
sS'fancier'
p3802
g10
sS'sufferer'
p3803
g3
sS'disgusting'
p3804
g3
sS'gutless'
p3805
g3
sS'deject'
p3806
g3
sS'unpleasant'
p3807
g3
sS'suffered'
p3808
g3
sS'ecenomical'
p3809
g10
sS'merit'
p3810
g10
sS'uneventful'
p3811
g3
sS'trophy'
p3812
g10
sS'dim'
p3813
g3
sS'din'
p3814
g3
sS'excellency'
p3815
g10
sS'die'
p3816
g3
sS'bright'
p3817
g10
sS'hooray'
p3818
g10
sS'excellence'
p3819
g10
sS'grimace'
p3820
g3
sS'unexpected'
p3821
g3
sS'ill-conceived'
p3822
g3
sS'sneakily'
p3823
g3
sS'inconsequential'
p3824
g3
sS'inconsiderately'
p3825
g3
sS'bombardment'
p3826
g3
sS'favour'
p3827
g10
sS'suspect'
p3828
g3
sS'drunkard'
p3829
g3
sS'unrestricted'
p3830
g10
sS'dishonestly'
p3831
g3
sS'wail'
p3832
g3
sS'unobserved'
p3833
g3
sS'loathly'
p3834
g3
sS'superstition'
p3835
g3
sS'snagging'
p3836
g3
sS'detest'
p3837
g3
sS'ingenuous'
p3838
g10
sS'congestion'
p3839
g3
sS'deceit'
p3840
g3
sS'oversimplify'
p3841
g3
sS'bruises'
p3842
g3
sS'exploitation'
p3843
g3
sS'drab'
p3844
g3
sS'draconic'
p3845
g3
sS'conveniently'
p3846
g10
sS'bruised'
p3847
g3
sS'stew'
p3848
g3
sS'breathtaking'
p3849
g10
sS'adjustable'
p3850
g10
sS'dissappointed'
p3851
g3
sS'discontentedly'
p3852
g3
sS'hardier'
p3853
g10
sS'testily'
p3854
g3
sS'flexibility'
p3855
g10
sS'radiance'
p3856
g10
sS'ailing'
p3857
g3
sS'surmount'
p3858
g10
sS'sharper'
p3859
g10
sS'licentious'
p3860
g3
sS'distraughtly'
p3861
g3
sS'joyous'
p3862
g10
sS'slowww'
p3863
g3
sS'compactly'
p3864
g10
sS'blotchy'
p3865
g3
sS'travesty'
p3866
g3
sS'adoringly'
p3867
g10
sS'insultingly'
p3868
g3
sS'rigid'
p3869
g3
sS'savior'
p3870
g10
sS'demolish'
p3871
g3
sS'deformed'
p3872
g3
sS'hubris'
p3873
g3
sS'sour'
p3874
g3
sS'drags'
p3875
g3
sS'cost-saving'
p3876
g10
sS'crazy'
p3877
g3
sS'grouchy'
p3878
g3
sS'confused'
p3879
g3
sS'overzealous'
p3880
g3
sS'disbelieve'
p3881
g3
sS'battered'
p3882
g3
sS'confuses'
p3883
g3
sS'craze'
p3884
g3
sS'indifferent'
p3885
g3
sS'lifeless'
p3886
g3
sS'inundated'
p3887
g3
sS'strikingly'
p3888
g10
sS'scornfully'
p3889
g3
sS'pure'
p3890
g10
sS'mar'
p3891
g3
sS'critics'
p3892
g3
sS'praiseworthy'
p3893
g10
sS'sustainability'
p3894
g10
sS'mad'
p3895
g3
sS'mocks'
p3896
g3
sS'destructive'
p3897
g3
sS'infallibility'
p3898
g10
sS'scrambling'
p3899
g3
sS'aimless'
p3900
g3
sS'purify'
p3901
g10
sS'fluent'
p3902
g10
sS'thorny'
p3903
g3
sS'pickets'
p3904
g3
sS'flat-out'
p3905
g3
sS'imprecision'
p3906
g3
sS'bungle'
p3907
g3
sS'cute'
p3908
g10
sS'fatuity'
p3909
g3
sS'shaky'
p3910
g3
sS'stability'
p3911
g10
sS'spookier'
p3912
g3
sS'shake'
p3913
g3
sS'irresolute'
p3914
g3
sS'setbacks'
p3915
g3
sS'incoherence'
p3916
g3
sS'interesting'
p3917
g10
sS'undermined'
p3918
g3
sS'unacceptablely'
p3919
g3
sS'undermines'
p3920
g3
sS'accusations'
p3921
g3
sS'rattled'
p3922
g3
sS'killer'
p3923
g3
sS'shatter'
p3924
g3
sS'soulful'
p3925
g10
sS'sarcastic'
p3926
g3
sS'stubbornness'
p3927
g3
sS'aspirations'
p3928
g10
sS'bullshit'
p3929
g3
sS'rattles'
p3930
g3
sS'feverish'
p3931
g3
sS'resignation'
p3932
g3
sS'misgivings'
p3933
g3
sS'careless'
p3934
g3
sS'craftily'
p3935
g3
sS'scolded'
p3936
g3
sS'ruffle'
p3937
g3
sS'unachievable'
p3938
g3
sS'jubiliant'
p3939
g10
sS'abnormal'
p3940
g3
sS'richly'
p3941
g10
sS'aloof'
p3942
g3
sS'vociferously'
p3943
g3
sS'impurity'
p3944
g3
sS'interference'
p3945
g3
sS'condemns'
p3946
g3
sS'dominate'
p3947
g10
sS'correct'
p3948
g10
sS'assurance'
p3949
g10
sS'inaction'
p3950
g3
sS'monster'
p3951
g3
sS'self-determination'
p3952
g10
sS'hefty'
p3953
g3
sS'smudge'
p3954
g3
sS'miscreants'
p3955
g3
sS'dehumanization'
p3956
g3
sS'disfavor'
p3957
g3
sS'funky'
p3958
g3
sS'sensationally'
p3959
g10
sS'invalidity'
p3960
g3
sS'desultory'
p3961
g3
sS'assuredly'
p3962
g10
sS'remorseful'
p3963
g3
sS'fleeing'
p3964
g3
sS'dungeons'
p3965
g3
sS'scandalized'
p3966
g3
sS'cheesy'
p3967
g3
sS'incompetently'
p3968
g3
sS'thoughtless'
p3969
g3
sS'murky'
p3970
g3
sS'autocrat'
p3971
g3
sS'lambaste'
p3972
g3
sS'fiery'
p3973
g10
sS'daunt'
p3974
g3
sS'bloodshed'
p3975
g3
sS'gaudy'
p3976
g3
sS'inefficient'
p3977
g3
sS'subpoenas'
p3978
g3
sS'blurred'
p3979
g3
sS'set-up'
p3980
g3
sS'cracks'
p3981
g3
sS'capsize'
p3982
g3
sS'tantalize'
p3983
g10
sS'improbability'
p3984
g3
sS'first-in-class'
p3985
g10
sS'hard-hit'
p3986
g3
sS'conspiracy'
p3987
g3
sS'sulk'
p3988
g3
sS'inadverent'
p3989
g3
sS'glibly'
p3990
g3
sS'efficient'
p3991
g10
sS'isolate'
p3992
g3
sS'shocked'
p3993
g3
sS'acumen'
p3994
g10
sS'wretch'
p3995
g3
sS'personalized'
p3996
g10
sS'futurestic'
p3997
g10
sS'frost'
p3998
g3
sS'pain'
p3999
g3
sS'insanity'
p4000
g3
sS'contrasty'
p4001
g10
sS'complaints'
p4002
g3
sS'supremely'
p4003
g10
sS'well-intentioned'
p4004
g10
sS'hardships'
p4005
g3
sS'conspicuous'
p4006
g3
sS'viewable'
p4007
g10
sS'gracefully'
p4008
g10
sS'pernicious'
p4009
g3
sS'massacres'
p4010
g3
sS'scowl'
p4011
g3
sS'iniquitous'
p4012
g3
sS'watered-down'
p4013
g3
sS'precise'
p4014
g10
sS'disunity'
p4015
g3
sS'elevate'
p4016
g10
sS'gumption'
p4017
g10
sS'enthusiast'
p4018
g10
sS'despairingly'
p4019
g3
sS'stormy'
p4020
g3
sS'dick'
p4021
g3
sS'impunity'
p4022
g3
sS'incredulous'
p4023
g3
sS'disconcerting'
p4024
g3
sS'enthusiasm'
p4025
g10
sS'flickers'
p4026
g3
sS'exaggeration'
p4027
g3
sS'skulk'
p4028
g3
sS'straggler'
p4029
g3
sS'satisfied'
p4030
g10
sS'unimportant'
p4031
g3
sS'lionhearted'
p4032
g10
sS'gibber'
p4033
g3
sS'unethical'
p4034
g3
sS'gem'
p4035
g10
sS'beseech'
p4036
g3
sS'outshine'
p4037
g10
sS'stupid'
p4038
g3
sS'worrying'
p4039
g3
sS'stumbled'
p4040
g3
sS'affordable'
p4041
g10
sS'lethargy'
p4042
g3
sS'honesty'
p4043
g10
sS'fatefully'
p4044
g3
sS'stigma'
p4045
g3
sS'brutalising'
p4046
g3
sS'wonder'
p4047
g10
sS'gratifying'
p4048
g10
sS'satisfying'
p4049
g10
sS'steadfast'
p4050
g10
sS'kid-friendly'
p4051
g10
sS'enough'
p4052
g10
sS'vindictively'
p4053
g3
sS'kook'
p4054
g3
sS'self-humiliation'
p4055
g3
sS'killing'
p4056
g3
sS'unsecure'
p4057
g3
sS'affordably'
p4058
g10
sS'dissidence'
p4059
g3
sS'skittishly'
p4060
g3
sS'inanely'
p4061
g3
sS'fulminate'
p4062
g3
sS'sketchy'
p4063
g3
sS'tout'
p4064
g3
sS'disappointment'
p4065
g3
sS'delirium'
p4066
g3
sS'laudably'
p4067
g10
sS'cancer'
p4068
g3
sS'spank'
p4069
g3
sS'accusation'
p4070
g3
sS'disliking'
p4071
g3
sS'mortification'
p4072
g3
sS'laudable'
p4073
g10
sS'sensible'
p4074
g10
sS'intrude'
p4075
g3
sS'caricature'
p4076
g3
sS'capable'
p4077
g10
sS'dependably'
p4078
g10
sS'wobble'
p4079
g3
sS'entranced'
p4080
g10
sS'dependable'
p4081
g10
sS'capably'
p4082
g10
sS'sensibly'
p4083
g10
sS'educated'
p4084
g10
sS'devilish'
p4085
g3
sS'indulgence'
p4086
g10
sS'workable'
p4087
g10
sS'squash'
p4088
g3
sS'jutters'
p4089
g3
sS'stifling'
p4090
g3
sS'predicament'
p4091
g3
sS'invigorate'
p4092
g10
sS'unorthodoxy'
p4093
g3
sS'promising'
p4094
g10
sS'huckster'
p4095
g3
sS'sincere'
p4096
g10
sS'strain'
p4097
g3
sS'sillily'
p4098
g3
sS'obnoxious'
p4099
g3
sS'creaks'
p4100
g3
sS'harsh'
p4101
g3
sS'indelicate'
p4102
g3
sS'triumphantly'
p4103
g10
sS'deference'
p4104
g10
sS'struggling'
p4105
g3
sS'pan'
p4106
g3
sS'dishonorable'
p4107
g3
sS'exhaust'
p4108
g3
sS'safe'
p4109
g10
sS'admonishingly'
p4110
g3
sS'disapointing'
p4111
g3
sS'break'
p4112
g3
sS'drain'
p4113
g3
sS'slanders'
p4114
g3
sS'peach'
p4115
g10
sS'intermittent'
p4116
g3
sS'amazes'
p4117
g10
sS'oppositions'
p4118
g3
sS'substantive'
p4119
g10
sS'stunted'
p4120
g3
sS'easing'
p4121
g10
sS'bumping'
p4122
g3
sS'uncomplicated'
p4123
g10
sS'amazed'
p4124
g10
sS'parody'
p4125
g3
sS'peace'
p4126
g10
sS'gaining'
p4127
g10
sS'fume'
p4128
g3
sS'reputable'
p4129
g10
sS'clueless'
p4130
g3
sS'adulterated'
p4131
g3
sS'astonishment'
p4132
g10
sS'grating'
p4133
g3
sS'eviscerate'
p4134
g3
sS'inhibition'
p4135
g3
sS'disadvantageous'
p4136
g3
sS'implicate'
p4137
g3
sS'disappointed'
p4138
g3
sS'grim'
p4139
g3
sS'grin'
p4140
g10
sS'distrustful'
p4141
g3
sS'paupers'
p4142
g3
sS'gratifyingly'
p4143
g10
sS'miraculous'
p4144
g10
sS'passionate'
p4145
g10
sS'hysterics'
p4146
g3
sS'afflict'
p4147
g3
sS'imprisonment'
p4148
g3
sS'erase'
p4149
g3
sS'importunate'
p4150
g3
sS'booming'
p4151
g10
sS'gross'
p4152
g3
sS'critical'
p4153
g3
sS'gladden'
p4154
g10
sS'knife'
p4155
g3
sS'apocalyptic'
p4156
g3
sS'egocentric'
p4157
g3
sS'awsome'
p4158
g10
sS'despicably'
p4159
g3
sS'notably'
p4160
g10
sS'broken'
p4161
g3
sS'despicable'
p4162
g3
sS'dastardly'
p4163
g3
sS'finicky'
p4164
g3
sS'tease'
p4165
g3
sS'smear'
p4166
g3
sS'demonic'
p4167
g3
sS'knave'
p4168
g3
sS'threesome'
p4169
g3
sS'fallacy'
p4170
g3
sS'dissocial'
p4171
g3
sS'acridly'
p4172
g3
sS'unnerved'
p4173
g3
sS'multi-polarization'
p4174
g3
sS'rockstars'
p4175
g10
sS'annoys'
p4176
g3
sS'totalitarian'
p4177
g3
sS'brute'
p4178
g3
sS'madder'
p4179
g3
sS'compliant'
p4180
g10
sS'decisive'
p4181
g10
sS'hysterical'
p4182
g3
sS'downer'
p4183
g3
sS'fanatic'
p4184
g3
sS'unsettled'
p4185
g3
sS'buggy'
p4186
g3
sS'sophisticated'
p4187
g10
sS'shroud'
p4188
g3
sS'ineloquent'
p4189
g3
sS'bull****'
p4190
g3
sS'belated'
p4191
g3
sS'annihilate'
p4192
g3
sS'grudging'
p4193
g3
sS'exemplar'
p4194
g10
sS'eschew'
p4195
g3
sS'grouch'
p4196
g3
sS'deadlock'
p4197
g3
sS'powerless'
p4198
g3
sS'affection'
p4199
g10
sS'deterrent'
p4200
g3
sS'casualty'
p4201
g3
sS'tedious'
p4202
g3
sS'selfish'
p4203
g3
sS'oversights'
p4204
g3
sS'floored'
p4205
g3
sS'swankiest'
p4206
g10
sS'unaccustomed'
p4207
g3
sS'victimize'
p4208
g3
sS'fruitless'
p4209
g3
sS'important'
p4210
g10
sS'equitable'
p4211
g10
sS'prudent'
p4212
g10
sS'pitifully'
p4213
g3
sS'grudge'
p4214
g3
sS'consternation'
p4215
g3
sS'recklessness'
p4216
g3
sS'refutation'
p4217
g3
sS'liar'
p4218
g3
sS'vile'
p4219
g3
sS'forbidden'
p4220
g3
sS'allergy'
p4221
g3
sS'scandel'
p4222
g3
sS'sunk'
p4223
g3
sS'wrestle'
p4224
g3
sS'forged'
p4225
g3
sS'cooperative'
p4226
g10
sS'reluctant'
p4227
g3
sS'enjoying'
p4228
g10
sS'hideous'
p4229
g3
sS'straightforward'
p4230
g10
sS'righten'
p4231
g10
sS'carefree'
p4232
g10
sS'overdone'
p4233
g3
sS'fall'
p4234
g3
sS'unilateralism'
p4235
g3
sS'elated'
p4236
g10
sS'inpressed'
p4237
g10
sS'benevolent'
p4238
g10
sS'enrapture'
p4239
g10
sS'portable'
p4240
g10
sS'affably'
p4241
g10
sS'prominence'
p4242
g10
sS'preposterous'
p4243
g3
sS'affectation'
p4244
g10
sS'affable'
p4245
g10
sS'misrepresent'
p4246
g3
sS'illogical'
p4247
g3
sS'sweetly'
p4248
g10
sS'skeptic'
p4249
g3
sS'exasperation'
p4250
g3
sS'issues'
p4251
g3
sS'judicious'
p4252
g10
sS'everlasting'
p4253
g10
sS'falsify'
p4254
g3
sS'outperforming'
p4255
g10
sS'harridan'
p4256
g3
sS'stupor'
p4257
g3
sS'enmity'
p4258
g3
sS'misery'
p4259
g3
sS'prejudge'
p4260
g3
sS'cowardly'
p4261
g3
sS'readily'
p4262
g10
sS'wobbled'
p4263
g3
sS'alarmingly'
p4264
g3
sS'tacky'
p4265
g3
sS'jubilant'
p4266
g10
sS'hegemony'
p4267
g3
sS'handsomely'
p4268
g10
sS'brisk'
p4269
g10
sS'apprehensions'
p4270
g3
sS'grisly'
p4271
g3
sS'adulteration'
p4272
g3
sS'sucky'
p4273
g3
sS'sucks'
p4274
g3
sS'frustratingly'
p4275
g3
sS'taut'
p4276
g3
sS'dazed'
p4277
g3
sS'stubborn'
p4278
g3
sS'shark'
p4279
g3
sS'grumpish'
p4280
g3
sS'rejuvenated'
p4281
g10
sS'expeditiously'
p4282
g10
sS'onslaught'
p4283
g3
sS'painfull'
p4284
g3
sS'reproachful'
p4285
g3
sS'despot'
p4286
g3
sS'sharp'
p4287
g10
sS'wisely'
p4288
g10
sS'drained'
p4289
g3
sS'sermonize'
p4290
g3
sS'needy'
p4291
g3
sS'comfort'
p4292
g10
sS'low-risk'
p4293
g10
sS'rapport'
p4294
g10
sS'inflationary'
p4295
g3
sS'uprising'
p4296
g3
sS'fast-growing'
p4297
g10
sS'spectacularly'
p4298
g10
sS'bloom'
p4299
g10
sS'bleak'
p4300
g3
sS'usurper'
p4301
g3
sS'crowded'
p4302
g3
sS'spiteful'
p4303
g3
sS'crippling'
p4304
g3
sS'blunder'
p4305
g3
sS'mislead'
p4306
g3
sS'jeering'
p4307
g3
sS'pleasure'
p4308
g10
sS'egregiously'
p4309
g3
sS'displease'
p4310
g3
sS'swamped'
p4311
g3
sS'oblique'
p4312
g3
sS'setback'
p4313
g3
sS'deploring'
p4314
g3
sS'lewdly'
p4315
g3
sS'suffer'
p4316
g3
sS'prevaricate'
p4317
g3
sS'arrogant'
p4318
g3
sS'messed'
p4319
g3
sS'thrilling'
p4320
g10
sS'emaciated'
p4321
g3
sS'sensationalize'
p4322
g3
sS'famished'
p4323
g3
sS'misunderstandings'
p4324
g3
sS'messes'
p4325
g3
sS'impressiveness'
p4326
g10
sS'clamor'
p4327
g3
sS'bereft'
p4328
g3
sS'goof'
p4329
g3
sS'hurting'
p4330
g3
sS'good'
p4331
g10
sS'egotistically'
p4332
g3
sS'disrespectful'
p4333
g3
sS'goon'
p4334
g3
sS'prejudices'
p4335
g3
sS'undissolved'
p4336
g3
sS'frigid'
p4337
g3
sS'unauthentic'
p4338
g3
sS'complain'
p4339
g3
sS'mystery'
p4340
g3
sS'restrict'
p4341
g3
sS'evade'
p4342
g3
sS'goofy'
p4343
g3
sS'subjugation'
p4344
g3
sS'arduously'
p4345
g3
sS'inordinately'
p4346
g3
sS'harboring'
p4347
g3
sS'exquisite'
p4348
g10
sS'harm'
p4349
g3
sS'hard'
p4350
g3
sS'engaging'
p4351
g10
sS'muscle-flexing'
p4352
g3
sS'fist'
p4353
g3
sS'respectful'
p4354
g10
sS'sharpest'
p4355
g10
sS'childish'
p4356
g3
sS'sickness'
p4357
g3
sS'discouraging'
p4358
g3
sS'dejectedly'
p4359
g3
sS'avenge'
p4360
g3
sS'fortitude'
p4361
g10
sS'tiresome'
p4362
g3
sS'disobedience'
p4363
g3
sS'bully'
p4364
g3
sS'pathetic'
p4365
g3
sS'stridently'
p4366
g3
sS'pleasant'
p4367
g10
sS'extraordinary'
p4368
g10
sS'entrancing'
p4369
g10
sS'laughable'
p4370
g3
sS'devilishly'
p4371
g3
sS'benefits'
p4372
g10
sS'omit'
p4373
g3
sS'audacity'
p4374
g3
sS'bragger'
p4375
g3
sS'dissatisfy'
p4376
g3
sS'perturb'
p4377
g3
sS'mistakenly'
p4378
g3
sS'bullies'
p4379
g3
sS'barbarian'
p4380
g3
sS'humourous'
p4381
g10
sS'scandalously'
p4382
g3
sS'hatefulness'
p4383
g3
sS'euphoria'
p4384
g10
sS'jabber'
p4385
g3
sS'disown'
p4386
g3
sS'precariously'
p4387
g3
sS'indulgent'
p4388
g10
sS'mercilessly'
p4389
g3
sS'smoothes'
p4390
g10
sS'smoother'
p4391
g10
sS'revive'
p4392
g10
sS'ingeniously'
p4393
g10
sS'pains'
p4394
g3
sS'uproarious'
p4395
g3
sS'fatique'
p4396
g3
sS'sensation'
p4397
g10
sS'favorable'
p4398
g10
sS'gruesome'
p4399
g3
sS'carnage'
p4400
g3
sS'savagery'
p4401
g3
sS'spirited'
p4402
g10
sS'low-price'
p4403
g10
sS'ambitiously'
p4404
g10
sS'unusual'
p4405
g3
sS'sturdier'
p4406
g10
sS'forgetfully'
p4407
g3
sS'murder'
p4408
g3
sS'traumatically'
p4409
g3
sS'disgustful'
p4410
g3
sS'meltdown'
p4411
g3
sS'insufferably'
p4412
g3
sS'refute'
p4413
g3
sS'flares'
p4414
g3
sS'thrillingly'
p4415
g10
sS'insufferable'
p4416
g3
sS'serene'
p4417
g10
sS'easygoing'
p4418
g10
sS'adulatory'
p4419
g10
sS'disconcerted'
p4420
g3
sS'state-of-the-art'
p4421
g10
sS'charm'
p4422
g10
sS'significant'
p4423
g10
sS'corrupts'
p4424
g3
sS'goodwill'
p4425
g10
sS'faithless'
p4426
g3
sS'charitable'
p4427
g10
sS'cramped'
p4428
g3
sS'swelling'
p4429
g3
sS'martyrdom-seeking'
p4430
g3
sS'malignant'
p4431
g3
sS'fine'
p4432
g10
sS'defiler'
p4433
g3
sS'nervous'
p4434
g3
sS'ruin'
p4435
g3
sS'unhappy'
p4436
g3
sS'freedoms'
p4437
g10
sS'idiots'
p4438
g3
sS'spitefully'
p4439
g3
sS'convoluted'
p4440
g3
sS'eruptions'
p4441
g3
sS'credulous'
p4442
g3
sS'villian'
p4443
g3
sS'devastate'
p4444
g3
sS'wreaks'
p4445
g3
sS'zapped'
p4446
g3
sS'courage'
p4447
g10
sS'contagious'
p4448
g3
sS'lividly'
p4449
g3
sS'audiciously'
p4450
g3
sS'unfettered'
p4451
g10
sS'condemnation'
p4452
g3
sS'cynical'
p4453
g3
sS'tender'
p4454
g10
sS'petrify'
p4455
g3
sS'gaily'
p4456
g10
sS'misalign'
p4457
g3
sS'quarrellous'
p4458
g3
sS'fans'
p4459
g10
sS'abrade'
p4460
g3
sS'distraught'
p4461
g3
sS'burned'
p4462
g3
sS'complementary'
p4463
g10
sS'complement'
p4464
g10
sS'figurehead'
p4465
g3
sS'trustingly'
p4466
g10
sS'incommensurate'
p4467
g3
sS'egotism'
p4468
g3
sS'pamperedness'
p4469
g10
sS'defunct'
p4470
g3
sS'indiscriminately'
p4471
g3
sS'carelessness'
p4472
g3
sS'quarrelsome'
p4473
g3
sS'spiritless'
p4474
g3
sS'upgraded'
p4475
g10
sS'smother'
p4476
g3
sS'panicking'
p4477
g3
sS'unsuccessful'
p4478
g3
sS'openness'
p4479
g10
sS'supple'
p4480
g10
sS'civilize'
p4481
g10
sS'expensive'
p4482
g3
sS'headaches'
p4483
g3
sS'rock-star'
p4484
g10
sS'frets'
p4485
g3
sS'appall'
p4486
g3
sS'faithfully'
p4487
g10
sS'intrusive'
p4488
g3
sS'ineptitude'
p4489
g3
sS'aborts'
p4490
g3
sS'enchantingly'
p4491
g10
sS'cruelty'
p4492
g3
sS'dissension'
p4493
g3
sS'pricey'
p4494
g3
sS'fretful'
p4495
g3
sS'rupture'
p4496
g3
sS'solid'
p4497
g10
sS'grainy'
p4498
g3
sS'fun'
p4499
g10
sS'shoddy'
p4500
g3
sS'heroically'
p4501
g10
sS'violently'
p4502
g3
sS'perilously'
p4503
g3
sS'drawbacks'
p4504
g3
sS'astound'
p4505
g10
sS'rancor'
p4506
g3
sS'debaser'
p4507
g3
sS'stubbornly'
p4508
g3
sS'enervate'
p4509
g3
sS'ruts'
p4510
g3
sS'aches'
p4511
g3
sS'facetiously'
p4512
g3
sS'achey'
p4513
g3
sS'dishonor'
p4514
g3
sS'butcher'
p4515
g3
sS'bristle'
p4516
g3
sS'contravene'
p4517
g3
sS'itch'
p4518
g3
sS'praising'
p4519
g10
sS'helped'
p4520
g10
sS'appreciable'
p4521
g10
sS'timid'
p4522
g3
sS'celebratory'
p4523
g10
sS'motionless'
p4524
g3
sS'whores'
p4525
g3
sS'energy-efficient'
p4526
g10
sS'craven'
p4527
g3
sS'snobby'
p4528
g3
sS'scummy'
p4529
g3
sS'toil'
p4530
g3
sS'recant'
p4531
g3
sS'alluring'
p4532
g10
sS'vindictive'
p4533
g3
sS'ludicrous'
p4534
g3
sS'profoundly'
p4535
g10
sS'distracting'
p4536
g3
sS'unrelentingly'
p4537
g3
sS'irritable'
p4538
g3
sS'dishonesty'
p4539
g3
sS'superficial'
p4540
g3
sS'washed-out'
p4541
g3
sS'hated'
p4542
g3
sS'excites'
p4543
g10
sS'snag'
p4544
g3
sS'impoverished'
p4545
g3
sS'excited'
p4546
g10
sS'hates'
p4547
g3
sS'hater'
p4548
g3
sS'ridiculously'
p4549
g3
sS'displace'
p4550
g3
sS'redeem'
p4551
g10
sS'stirringly'
p4552
g10
sS'terrorize'
p4553
g3
sS'knock'
p4554
g3
sS'blemish'
p4555
g3
sS'beutifully'
p4556
g10
sS'miff'
p4557
g3
sS'immorally'
p4558
g3
sS'propitious'
p4559
g10
sS'neatest'
p4560
g10
sS'mediocrity'
p4561
g3
sS'foolish'
p4562
g3
sS'transgress'
p4563
g3
sS'humorous'
p4564
g10
sS'extremism'
p4565
g3
sS'magnificent'
p4566
g10
sS'impeach'
p4567
g3
sS'euphorically'
p4568
g10
sS'extremist'
p4569
g3
sS'strongest'
p4570
g10
sS'insincere'
p4571
g3
sS'culprit'
p4572
g3
sS'defamation'
p4573
g3
sS'proficient'
p4574
g10
sS'pep'
p4575
g10
sS'modest'
p4576
g10
sS'bogus'
p4577
g3
sS'best-performing'
p4578
g10
sS'scaly'
p4579
g3
sS'inimical'
p4580
g3
sS'depressions'
p4581
g3
sS'taxing'
p4582
g3
sS'wayward'
p4583
g3
sS'peculiarly'
p4584
g3
sS'effusive'
p4585
g10
sS'hawkish'
p4586
g3
sS'inhumanity'
p4587
g3
sS'conciliatory'
p4588
g10
sS'harassed'
p4589
g3
sS'abusive'
p4590
g3
sS'harasses'
p4591
g3
sS'inhospitable'
p4592
g3
sS'obscenely'
p4593
g3
sS'ghosting'
p4594
g3
sS'downhill'
p4595
g3
sS'delusional'
p4596
g3
sS'calming'
p4597
g10
sS'inessential'
p4598
g3
sS'bores'
p4599
g3
sS'overpower'
p4600
g3
sS'infected'
p4601
g3
sS'cashback'
p4602
g10
sS'bored'
p4603
g3
sS'tingled'
p4604
g3
sS'errant'
p4605
g3
sS'opponent'
p4606
g3
sS'frenzied'
p4607
g3
sS'cloud'
p4608
g3
sS'discomfit'
p4609
g3
sS'rejection'
p4610
g3
sS'blockage'
p4611
g3
sS'detachable'
p4612
g10
sS'halfhearted'
p4613
g3
sS'aversion'
p4614
g3
sS'autonomous'
p4615
g10
sS'skittish'
p4616
g3
sS'repulse'
p4617
g3
sS'curt'
p4618
g3
sS'nepotism'
p4619
g3
sS'inexpertly'
p4620
g3
sS'beckoning'
p4621
g10
sS'deprive'
p4622
g3
sS'cure'
p4623
g10
sS'obtuse'
p4624
g3
sS'dragging'
p4625
g3
sS'denying'
p4626
g3
sS'adoring'
p4627
g10
sS'cohesive'
p4628
g10
sS'excuses'
p4629
g3
sS'revulsive'
p4630
g3
sS'dimmer'
p4631
g3
sS'assassinate'
p4632
g3
sS'accidental'
p4633
g3
sS'luxurious'
p4634
g10
sS'utterly'
p4635
g3
sS'desert'
p4636
g3
sS'gloatingly'
p4637
g3
sS'steadfastly'
p4638
g10
sS'downcast'
p4639
g3
sS'admiring'
p4640
g10
sS'failures'
p4641
g3
sS'offensiveness'
p4642
g3
sS'traitorously'
p4643
g3
sS'dogged'
p4644
g3
sS'rants'
p4645
g3
sS'wrangle'
p4646
g3
sS'fascinatingly'
p4647
g10
sS'intricate'
p4648
g10
sS'disintegration'
p4649
g3
sS'inattentive'
p4650
g3
sS'inspire'
p4651
g10
sS'suave'
p4652
g10
sS'enlightenment'
p4653
g10
sS'nervousness'
p4654
g3
sS'implausibly'
p4655
g3
sS'perversely'
p4656
g3
sS'startlingly'
p4657
g3
sS'accuse'
p4658
g3
sS'implausible'
p4659
g3
sS'subservient'
p4660
g3
sS'mesmerizing'
p4661
g10
sS'iniquity'
p4662
g3
sS'shock'
p4663
g3
sS'tenuously'
p4664
g3
sS'insubordinate'
p4665
g3
sS'choppy'
p4666
g3
sS'bleeding'
p4667
g3
sS'uncomfortably'
p4668
g3
sS'uncomfortable'
p4669
g3
sS'overtaxed'
p4670
g3
sS'lower-priced'
p4671
g10
sS'depression'
p4672
g3
sS'reconciliation'
p4673
g10
sS'backaches'
p4674
g3
sS'pittance'
p4675
g3
sS'shemale'
p4676
g3
sS'embroilment'
p4677
g3
sS'nitpick'
p4678
g3
sS'repudiation'
p4679
g3
sS'nonexistent'
p4680
g3
sS'nimble'
p4681
g10
sS'licentiousness'
p4682
g3
sS'sink'
p4683
g3
sS'dissuade'
p4684
g3
sS'discouragingly'
p4685
g3
sS'irritating'
p4686
g3
sS'forgetfulness'
p4687
g3
sS'fondly'
p4688
g10
sS'talent'
p4689
g10
sS'conceit'
p4690
g3
sS'contradiction'
p4691
g3
sS'honor'
p4692
g10
sS'abominate'
p4693
g3
sS'limp'
p4694
g3
sS'extravagance'
p4695
g3
sS'beckon'
p4696
g10
sS'scandal'
p4697
g3
sS'absurdness'
p4698
g3
sS'dissonance'
p4699
g3
sS'belittling'
p4700
g3
sS'breakup'
p4701
g3
sS'readable'
p4702
g10
sS'seamless'
p4703
g10
sS'demoralizingly'
p4704
g3
sS'anti-semites'
p4705
g3
sS'nauseates'
p4706
g3
sS'disgustingly'
p4707
g3
sS'dispirited'
p4708
g3
sS'excitedly'
p4709
g10
sS'malevolently'
p4710
g3
sS'dripping'
p4711
g3
sS'insufficiency'
p4712
g3
sS'deviousness'
p4713
g3
sS'ashamed'
p4714
g3
sS'tattered'
p4715
g3
sS'eccentricity'
p4716
g3
sS'enviously'
p4717
g10
sS'unforgiving'
p4718
g3
sS'adequate'
p4719
g10
sS'conscons'
p4720
g3
sS'unscrupulously'
p4721
g3
sS'jeers'
p4722
g3
sS'ebullience'
p4723
g10
sS'gruff'
p4724
g3
sS'exhilaration'
p4725
g10
sS'unreal'
p4726
g10
sS'praise'
p4727
g10
sS'immoderate'
p4728
g3
sS'effectively'
p4729
g10
sS'languorously'
p4730
g3
sS'fulfillment'
p4731
g10
sS'exorbitantly'
p4732
g3
sS'contempt'
p4733
g3
sS'magnificently'
p4734
g10
sS'daring'
p4735
g10
sS'lame'
p4736
g3
sS'pleasing'
p4737
g10
sS'winners'
p4738
g10
sS'gainfully'
p4739
g10
sS'villainously'
p4740
g3
sS'occlude'
p4741
g3
sS'incompetence'
p4742
g3
sS'impenitent'
p4743
g3
sS'bothered'
p4744
g3
sS'criticized'
p4745
g3
sS'lecher'
p4746
g3
sS'regally'
p4747
g10
sS'tamper'
p4748
g3
sS'furious'
p4749
g3
sS'resurgent'
p4750
g3
sS'languorous'
p4751
g3
sS'ricer'
p4752
g3
sS'disarm'
p4753
g3
sS'flattering'
p4754
g10
sS'fertile'
p4755
g10
sS'fortunate'
p4756
g10
sS'mordantly'
p4757
g3
sS'industrious'
p4758
g10
sS'braggart'
p4759
g3
sS'winning'
p4760
g10
sS'blatant'
p4761
g3
sS'revives'
p4762
g10
sS'criminal'
p4763
g3
sS'bountiful'
p4764
g10
sS'lunatic'
p4765
g3
sS'wows'
p4766
g10
sS'muddle'
p4767
g3
sS'denigrate'
p4768
g3
sS'kindness'
p4769
g10
sS'squabbling'
p4770
g3
sS'grudgingly'
p4771
g3
sS'thrill'
p4772
g10
sS'estranged'
p4773
g3
sS'warned'
p4774
g3
sS'radiant'
p4775
g10
sS'irrelevance'
p4776
g3
sS'sneering'
p4777
g3
sS'well-backlit'
p4778
g10
sS'virulent'
p4779
g3
sS'disregard'
p4780
g3
sS'monumentally'
p4781
g10
sS'licentiously'
p4782
g3
sS'cliched'
p4783
g3
sS'flair'
p4784
g3
sS'thwart'
p4785
g3
sS'restructured'
p4786
g10
sS'bluring'
p4787
g3
sS'repress'
p4788
g3
sS'invective'
p4789
g3
sS'insolvent'
p4790
g3
sS'stun'
p4791
g3
sS'marvelled'
p4792
g10
sS'solicitously'
p4793
g10
sS'venerate'
p4794
g10
sS'upbraid'
p4795
g3
sS'retards'
p4796
g3
sS'delinquency'
p4797
g3
sS'bleed'
p4798
g3
sS'dissatisfactory'
p4799
g3
sS'peeve'
p4800
g3
sS'deprived'
p4801
g3
sS'grieving'
p4802
g3
sS'facilitate'
p4803
g10
sS'whooa'
p4804
g10
sS'handier'
p4805
g10
sS'finest'
p4806
g10
sS'sack'
p4807
g3
sS'madden'
p4808
g3
sS'improvements'
p4809
g10
sS'puppet'
p4810
g3
sS'lagging'
p4811
g3
sS'pauper'
p4812
g3
sS'frazzle'
p4813
g3
sS'sadly'
p4814
g3
sS'vulgar'
p4815
g3
sS'unspecified'
p4816
g3
sS'lamentable'
p4817
g3
sS'immovable'
p4818
g3
sS'lamentably'
p4819
g3
sS'scant'
p4820
g3
sS'messing'
p4821
g3
sS'unscrupulous'
p4822
g3
sS'agonies'
p4823
g3
sS'smolder'
p4824
g3
sS'writhe'
p4825
g3
sS'dreary'
p4826
g3
sS'absent-minded'
p4827
g3
sS'inestimable'
p4828
g10
sS'loved'
p4829
g10
sS'glamorous'
p4830
g10
sS'jaw-droping'
p4831
g10
sS'slack'
p4832
g3
sS'brusque'
p4833
g3
sS'spookiest'
p4834
g3
sS'calamity'
p4835
g3
sS'halcyon'
p4836
g10
sS'loves'
p4837
g10
sS'lover'
p4838
g10
sS'undamaged'
p4839
g10
sS'imaginative'
p4840
g10
sS'tidy'
p4841
g10
sS'comfortable'
p4842
g10
sS'comfortably'
p4843
g10
sS'pitiable'
p4844
g3
sS'unlikely'
p4845
g3
sS'sporadic'
p4846
g3
sS'misaligned'
p4847
g3
sS'haywire'
p4848
g3
sS'skillful'
p4849
g10
sS'concerns'
p4850
g3
sS'effusiveness'
p4851
g10
sS'underlings'
p4852
g3
sS'savages'
p4853
g3
sS'spinster'
p4854
g3
sS'presumptuously'
p4855
g3
sS'disappointments'
p4856
g3
sS'savaged'
p4857
g3
sS'prisoner'
p4858
g3
sS'hoodwink'
p4859
g3
sS'inexorable'
p4860
g3
sS'downbeat'
p4861
g3
sS'heartening'
p4862
g10
sS'enthusiastic'
p4863
g10
sS'absurd'
p4864
g3
sS'skinny'
p4865
g3
sS'contemptuous'
p4866
g3
sS'inexorably'
p4867
g3
sS'supported'
p4868
g10
sS'vengefulness'
p4869
g3
sS'elimination'
p4870
g3
sS'traitor'
p4871
g3
sS'slanderer'
p4872
g3
sS'rebuke'
p4873
g3
sS'sidetrack'
p4874
g3
sS'thicker'
p4875
g3
sS'inspiring'
p4876
g10
sS'madman'
p4877
g3
sS'ambiguity'
p4878
g3
sS'tainted'
p4879
g3
sS'inferior'
p4880
g3
sS'head-aches'
p4881
g3
sS'adroit'
p4882
g10
sS'delirious'
p4883
g3
sS'unbeatable'
p4884
g10
sS'perfection'
p4885
g10
sS'exultant'
p4886
g10
sS'romantic'
p4887
g10
sS'awkwardness'
p4888
g3
sS'upseting'
p4889
g3
sS'eyecatch'
p4890
g10
sS'defame'
p4891
g3
sS'dripped'
p4892
g3
sS'amiabily'
p4893
g10
sS'enhances'
p4894
g10
sS'untrue'
p4895
g3
sS'subsidizing'
p4896
g10
sS'showdown'
p4897
g3
sS'inexplainable'
p4898
g3
sS'enhanced'
p4899
g10
sS'vilify'
p4900
g3
sS'imposition'
p4901
g3
sS'reform'
p4902
g10
sS'difficulties'
p4903
g3
sS'derisively'
p4904
g3
sS'progress'
p4905
g10
sS'tediously'
p4906
g3
sS'smilingly'
p4907
g10
sS'sorrow'
p4908
g3
sS'grumble'
p4909
g3
sS'regretful'
p4910
g3
sS'calamitously'
p4911
g3
sS'enflame'
p4912
g3
sS'empathy'
p4913
g10
sS'sharply'
p4914
g3
sS'asunder'
p4915
g3
sS'bonuses'
p4916
g10
sS'joke'
p4917
g3
sS'assure'
p4918
g10
sS'insidious'
p4919
g3
sS'darker'
p4920
g3
sS'glorious'
p4921
g10
sS'vent'
p4922
g3
sS'inflammatory'
p4923
g3
sS'invasive'
p4924
g3
sS'commend'
p4925
g10
sS'monstrosity'
p4926
g3
sS'flourishing'
p4927
g10
sS'instigators'
p4928
g3
sS'brotherly'
p4929
g10
sS'electrify'
p4930
g10
sS'muddy'
p4931
g3
sS'seasoned'
p4932
g10
sS'easiest'
p4933
g10
sS'spellbound'
p4934
g10
sS'anomaly'
p4935
g3
sS'perplexed'
p4936
g3
sS'overwhelmingly'
p4937
g3
sS'protect'
p4938
g10
sS'dispiritedly'
p4939
g3
sS'tenderly'
p4940
g10
sS'tense'
p4941
g3
sS'imbalance'
p4942
g3
sS'remorsefully'
p4943
g3
sS'promoter'
p4944
g10
sS'wonderously'
p4945
g10
sS'venomous'
p4946
g3
sS'supurb'
p4947
g10
sS'frustrating'
p4948
g3
sS'amenity'
p4949
g10
sS'likable'
p4950
g10
sS'bicker'
p4951
g3
sS'chaotic'
p4952
g3
sS'dissent'
p4953
g3
sS'delusion'
p4954
g3
sS'unclean'
p4955
g3
sS'creak'
p4956
g3
sS'well-behaved'
p4957
g10
sS'regression'
p4958
g3
sS'tumbled'
p4959
g3
sS'eulogize'
p4960
g10
sS'richness'
p4961
g10
sS'indistinguishable'
p4962
g3
sS'stupified'
p4963
g3
sS'sugar-coated'
p4964
g3
sS'tumbles'
p4965
g3
sS'garish'
p4966
g3
sS'bullying'
p4967
g3
sS'besmirch'
p4968
g3
sS'retard'
p4969
g3
sS'raping'
p4970
g3
sS'pampered'
p4971
g10
sS'chastisement'
p4972
g3
sS'disoriented'
p4973
g3
sS'exceedingly'
p4974
g10
sS'raving'
p4975
g3
sS'stooge'
p4976
g3
sS'inveigle'
p4977
g3
sS'surpass'
p4978
g10
sS'nurturing'
p4979
g10
sS'hypocritically'
p4980
g3
sS'stressfully'
p4981
g3
sS'confusions'
p4982
g3
sS'reformed'
p4983
g10
sS'miscalculate'
p4984
g3
sS'thoughtlessly'
p4985
g3
sS'punctual'
p4986
g10
sS'audibly'
p4987
g10
sS'displaced'
p4988
g3
sS'like'
p4989
g10
sS'success'
p4990
g10
sS'vibrant'
p4991
g10
sS'mastery'
p4992
g10
sS'works'
p4993
g10
sS'bafflement'
p4994
g3
sS'audible'
p4995
g10
sS'accessible'
p4996
g10
sS'crazily'
p4997
g3
sS'hail'
p4998
g10
sS'recommendation'
p4999
g10
sS'proper'
p5000
g10
sS'supportive'
p5001
g10
sS'stuffy'
p5002
g3
sS'shrug'
p5003
g3
sS'economical'
p5004
g10
sS'screwed'
p5005
g3
sS'hysterically'
p5006
g3
sS'ironies'
p5007
g3
sS'noise'
p5008
g3
sS'combative'
p5009
g3
sS'stellar'
p5010
g10
sS'expire'
p5011
g3
sS'pepped'
p5012
g10
sS'hospitable'
p5013
g10
sS'misbecoming'
p5014
g3
sS'unhappily'
p5015
g3
sS'seriousness'
p5016
g3
sS'smartly'
p5017
g10
sS'flake'
p5018
g3
sS'flaky'
p5019
g3
sS'obnoxiously'
p5020
g3
sS'baseless'
p5021
g3
sS'faithfulness'
p5022
g10
sS'obliterated'
p5023
g3
sS'chronic'
p5024
g3
sS'cancerous'
p5025
g3
sS'wack'
p5026
g3
sS'fastest-growing'
p5027
g10
sS'buckle'
p5028
g3
sS'adversarial'
p5029
g3
sS'awarded'
p5030
g10
sS'enticed'
p5031
g10
sS'stimulative'
p5032
g10
sS'glimmer'
p5033
g10
sS'touted'
p5034
g3
sS'glib'
p5035
g3
sS'tricky'
p5036
g3
sS'amity'
p5037
g10
sS'plague'
p5038
g3
sS'bum'
p5039
g3
sS'contemptuously'
p5040
g3
sS'strident'
p5041
g3
sS'versatile'
p5042
g10
sS'neurotically'
p5043
g3
sS'wise'
p5044
g10
sS'glory'
p5045
g10
sS'dangerous'
p5046
g3
sS'mists'
p5047
g3
sS'jealousness'
p5048
g3
sS'desititute'
p5049
g3
sS'examplar'
p5050
g10
sS'excruciatingly'
p5051
g3
sS'supreme'
p5052
g10
sS'unaffordable'
p5053
g3
sS'maliciously'
p5054
g3
sS'pig'
p5055
g3
sS'mysteriously'
p5056
g3
sS'unintelligible'
p5057
g3
sS'surreal'
p5058
g10
sS'puzzlement'
p5059
g3
sS'traumatic'
p5060
g3
sS'wallow'
p5061
g3
sS'gloriously'
p5062
g10
sS'insupportably'
p5063
g3
sS'coherent'
p5064
g10
sS'limited'
p5065
g3
sS'sufficed'
p5066
g10
sS'sleek'
p5067
g10
sS'slogs'
p5068
g3
sS'hating'
p5069
g3
sS'hate'
p5070
g3
sS'inexpert'
p5071
g3
sS'poorly'
p5072
g3
sS'violate'
p5073
g3
sS'poorest'
p5074
g3
sS'unbearablely'
p5075
g3
sS'rankle'
p5076
g3
sS'tenacity'
p5077
g10
sS'pride'
p5078
g10
sS'regrets'
p5079
g3
sS'divergent'
p5080
g3
sS'lure'
p5081
g3
sS'risk'
p5082
g3
sS'despondency'
p5083
g3
sS'lurk'
p5084
g3
sS'importune'
p5085
g3
sS'despondence'
p5086
g3
sS'anemic'
p5087
g3
sS'ovation'
p5088
g10
sS'harried'
p5089
g3
sS'tarnishing'
p5090
g3
sS'flashy'
p5091
g10
sS'delightfully'
p5092
g10
sS'enjoy'
p5093
g10
sS'veritable'
p5094
g10
sS'overdo'
p5095
g3
sS'reprehension'
p5096
g3
sS'consistent'
p5097
g10
sS'excelled'
p5098
g10
sS'louder'
p5099
g3
sS'emptiness'
p5100
g3
sS'worsen'
p5101
g3
sS'poison'
p5102
g3
sS'undaunted'
p5103
g10
sS'insinuate'
p5104
g3
sS'mischievous'
p5105
g3
sS'endorse'
p5106
g10
sS'stooges'
p5107
g3
sS'prate'
p5108
g3
sS'ultimatums'
p5109
g3
sS'ulterior'
p5110
g3
sS'feisty'
p5111
g10
sS'smuttiest'
p5112
g3
sS'humility'
p5113
g10
sS'shortness'
p5114
g3
sS'hideously'
p5115
g3
sS'ridicule'
p5116
g3
sS'well-bred'
p5117
g10
sS'displeasing'
p5118
g3
sS'adulterier'
p5119
g3
sS'loveless'
p5120
g3
sS'patience'
p5121
g10
sS'ridicules'
p5122
g3
sS'unfunded'
p5123
g3
sS'detesting'
p5124
g3
sS'incautious'
p5125
g3
sS'torment'
p5126
g3
sS'slaughtered'
p5127
g3
sS'blather'
p5128
g3
sS'barbarous'
p5129
g3
sS'naive'
p5130
g3
sS'phony'
p5131
g3
sS'grief'
p5132
g3
sS'ardently'
p5133
g10
sS'excellent'
p5134
g10
sS'diatribes'
p5135
g3
sS'abundance'
p5136
g10
sS'cheapest'
p5137
g10
sS'tremendously'
p5138
g10
sS'misjudgment'
p5139
g3
sS'deficiencies'
p5140
g3
sS'quarrel'
p5141
g3
sS'defile'
p5142
g3
sS'ingenuity'
p5143
g10
sS'excallent'
p5144
g10
sS'guarantee'
p5145
g10
sS'collude'
p5146
g3
sS'scolding'
p5147
g3
sS'bunk'
p5148
g3
sS'vagrant'
p5149
g3
sS'aching'
p5150
g3
sS'toxic'
p5151
g3
sS'infamously'
p5152
g3
sS'swiftness'
p5153
g10
sS'badly'
p5154
g3
sS'brutalizing'
p5155
g3
sS'mispronounce'
p5156
g3
sS'mess'
p5157
g3
sS'pokey'
p5158
g3
sS'insecure'
p5159
g3
sS'delicacy'
p5160
g10
sS'irrationalities'
p5161
g3
sS'astoundingly'
p5162
g10
sS'biting'
p5163
g3
sS'splendid'
p5164
g10
sS'reforming'
p5165
g10
sS'unsteady'
p5166
g3
sS'deform'
p5167
g3
sS'fiendish'
p5168
g3
sS'sickly'
p5169
g3
sS'strangle'
p5170
g3
sS'obscurity'
p5171
g3
sS'destroyer'
p5172
g3
sS'hypocrisy'
p5173
g3
sS'polluters'
p5174
g3
sS'tramp'
p5175
g3
sS'complex'
p5176
g3
sS'whips'
p5177
g3
sS'smouldering'
p5178
g3
sS'litigious'
p5179
g3
sS'vouchsafe'
p5180
g10
sS'powerful'
p5181
g10
sS'misdirection'
p5182
g3
sS'disreputable'
p5183
g3
sS'gloom'
p5184
g3
sS'cronyism'
p5185
g3
sS'shadowy'
p5186
g3
sS'explode'
p5187
g3
sS'frantically'
p5188
g3
sS'capricious'
p5189
g3
sS'victory'
p5190
g10
sS'fecilitous'
p5191
g10
sS'elatedly'
p5192
g10
sS'prohibit'
p5193
g3
sS'wariness'
p5194
g3
sS'laud'
p5195
g10
sS'dispiriting'
p5196
g3
sS'truant'
p5197
g3
sS'depress'
p5198
g3
sS'fraught'
p5199
g3
sS'fevers'
p5200
g3
sS'sane'
p5201
g10
sS'unabashed'
p5202
g10
sS'heavenly'
p5203
g10
sS'bitingly'
p5204
g3
sS'hang'
p5205
g3
sS'free'
p5206
g10
sS'masterpiece'
p5207
g10
sS'damper'
p5208
g3
sS'supurbly'
p5209
g10
sS'disregardful'
p5210
g3
sS'fret'
p5211
g3
sS'inexpensive'
p5212
g10
sS'heck'
p5213
g3
sS'hopeless'
p5214
g3
sS'aspire'
p5215
g10
sS'wowed'
p5216
g10
sS'dunce'
p5217
g3
sS'officious'
p5218
g3
sS'lovably'
p5219
g10
sS'encouraging'
p5220
g10
sS'bombard'
p5221
g3
sS'rant'
p5222
g3
sS'smugly'
p5223
g3
sS'sober'
p5224
g3
sS'traitorous'
p5225
g3
sS'slanderously'
p5226
g3
sS'cheerless'
p5227
g3
sS'revival'
p5228
g10
sS'sarcasm'
p5229
g3
sS'top'
p5230
g10
sS'indeterminate'
p5231
g3
sS'euphoric'
p5232
g10
sS'fiction'
p5233
g3
sS'overact'
p5234
g3
sS'wildly'
p5235
g3
sS'militancy'
p5236
g3
sS'insightful'
p5237
g10
sS'illiterate'
p5238
g3
sS'indiscreet'
p5239
g3
sS'villianous'
p5240
g3
sS'leaking'
p5241
g3
sS'conspicuously'
p5242
g3
sS'titillate'
p5243
g10
sS'flimflam'
p5244
g3
sS'inarticulate'
p5245
g3
sS'mercifully'
p5246
g10
sS'rampage'
p5247
g3
sS'bloated'
p5248
g3
sS'thumb-down'
p5249
g3
sS'boil'
p5250
g3
sS'forceful'
p5251
g3
sS'outperforms'
p5252
g10
sS'screwy'
p5253
g3
sS'wripping'
p5254
g3
sS'unaffected'
p5255
g10
sS'spade'
p5256
g3
sS'relapse'
p5257
g3
sS'isolated'
p5258
g3
sS'elegance'
p5259
g10
sS'snob'
p5260
g3
sS'effectiveness'
p5261
g10
sS'clunky'
p5262
g3
sS'inexcusably'
p5263
g3
sS'visionary'
p5264
g10
sS'unorthodox'
p5265
g3
sS'inexcusable'
p5266
g3
sS'glow'
p5267
g10
sS'lifesaver'
p5268
g10
sS'devastating'
p5269
g3
sS'interests'
p5270
g10
sS'short-lived'
p5271
g3
sS'orderly'
p5272
g10
sS'reputation'
p5273
g10
sS'inaccuracies'
p5274
g3
sS'entertaining'
p5275
g10
sS'bait'
p5276
g3
sS'overpriced'
p5277
g3
sS'marveled'
p5278
g10
sS'endear'
p5279
g10
sS'dupe'
p5280
g3
sS'queer'
p5281
g3
sS'sags'
p5282
g3
sS'thumbs-down'
p5283
g3
sS'spite'
p5284
g3
sS'delays'
p5285
g3
sS'disgust'
p5286
g3
sS'enslave'
p5287
g3
sS'hardball'
p5288
g3
sS'continuity'
p5289
g10
sS'anti-social'
p5290
g3
sS'hostility'
p5291
g3
sS'baffle'
p5292
g3
sS'ultimatum'
p5293
g3
sS'considerate'
p5294
g10
sS'overbearing'
p5295
g3
sS'get-rich'
p5296
g3
sS'subservience'
p5297
g3
sS'anxiously'
p5298
g3
sS'collusion'
p5299
g3
sS'idiotic'
p5300
g3
sS'enraging'
p5301
g3
sS'large-capacity'
p5302
g10
sS'boring'
p5303
g3
sS'ruins'
p5304
g3
sS'fragrant'
p5305
g10
sS'wrest'
p5306
g3
sS'skeptically'
p5307
g3
sS'inapt'
p5308
g3
sS'desolately'
p5309
g3
sS'corrupt'
p5310
g3
sS'disturbing'
p5311
g3
sS'crowdedness'
p5312
g3
sS'immaculately'
p5313
g10
sS'temptation'
p5314
g3
sS'startle'
p5315
g3
sS'deceptively'
p5316
g3
sS'smutty'
p5317
g3
sS'incomprehension'
p5318
g3
sS'adventuresome'
p5319
g10
sS'confusion'
p5320
g3
sS'juddering'
p5321
g3
sS'weak'
p5322
g3
sS'contort'
p5323
g3
sS'devout'
p5324
g10
sS'contamination'
p5325
g3
sS'blasted'
p5326
g3
sS'improve'
p5327
g10
sS'spoilled'
p5328
g3
sS'irregular'
p5329
g3
sS'smartest'
p5330
g10
sS'fault'
p5331
g3
sS'precipitous'
p5332
g3
sS'disastrous'
p5333
g3
sS'hypocrites'
p5334
g3
sS'gainsayer'
p5335
g3
sS'escapade'
p5336
g3
sS'self-respect'
p5337
g10
sS'epidemic'
p5338
g3
sS'hands-down'
p5339
g10
sS'majestic'
p5340
g10
sS'trust'
p5341
g10
sS'comical'
p5342
g3
sS'incomparable'
p5343
g3
sS'foully'
p5344
g3
sS'beneficiary'
p5345
g10
sS'confident'
p5346
g10
sS'miraculously'
p5347
g10
sS'incomparably'
p5348
g3
sS'refuted'
p5349
g3
sS'overawe'
p5350
g3
sS'fleeting'
p5351
g3
sS'bereavement'
p5352
g3
sS'well-run'
p5353
g10
sS'refutes'
p5354
g3
sS'terrible'
p5355
g3
sS'apprehension'
p5356
g3
sS'semi-retarded'
p5357
g3
sS'inviolable'
p5358
g10
sS'strangest'
p5359
g3
sS'luxuriate'
p5360
g10
sS'ugliest'
p5361
g3
sS'niggles'
p5362
g3
sS'subjugate'
p5363
g3
sS'cracked'
p5364
g3
sS'provocative'
p5365
g3
sS'honorable'
p5366
g10
sS'submissive'
p5367
g3
sS'dazzled'
p5368
g10
sS'misaligns'
p5369
g3
sS'wound'
p5370
g3
sS'drawback'
p5371
g3
sS'brainiest'
p5372
g10
sS'unyielding'
p5373
g3
sS'groundbreaking'
p5374
g10
sS'positives'
p5375
g10
sS'incredulously'
p5376
g3
sS'incapably'
p5377
g3
sS'gabble'
p5378
g3
sS'savings'
p5379
g10
sS'impediment'
p5380
g3
sS'greatest'
p5381
g10
sS'incapable'
p5382
g3
sS'admiringly'
p5383
g10
sS'bruise'
p5384
g3
sS'uncooperative'
p5385
g3
sS'enlighten'
p5386
g10
sS'rapturous'
p5387
g10
sS'vibration'
p5388
g3
sS'overemphasize'
p5389
g3
sS'rumor'
p5390
g3
sS'pitiful'
p5391
g3
sS'tolerable'
p5392
g10
sS'trashed'
p5393
g3
sS'erratically'
p5394
g3
sS'spoilages'
p5395
g3
sS'salacious'
p5396
g3
sS'breaks'
p5397
g3
sS'addicts'
p5398
g3
sS'bungling'
p5399
g3
sS'dissuasive'
p5400
g3
sS'burns'
p5401
g3
sS'advanced'
p5402
g10
sS'peeved'
p5403
g3
sS'excellently'
p5404
g10
sS'brutality'
p5405
g3
sS'zeal'
p5406
g10
sS'contradict'
p5407
g3
sS'gifted'
p5408
g10
sS'dishonest'
p5409
g3
sS'unsuspecting'
p5410
g3
sS'overrated'
p5411
g3
sS'arbitrary'
p5412
g3
sS'hung'
p5413
g3
sS'sweeten'
p5414
g10
sS'stereotype'
p5415
g3
sS'detraction'
p5416
g3
sS'frustrations'
p5417
g3
sS'successfully'
p5418
g10
sS'accost'
p5419
g3
sS'insincerely'
p5420
g3
sS'displeasure'
p5421
g3
sS'prowess'
p5422
g10
sS'exhausts'
p5423
g3
sS'prejudicial'
p5424
g3
sS'remorselessness'
p5425
g3
sS'splendor'
p5426
g10
sS'fustigate'
p5427
g3
sS'hegemonistic'
p5428
g3
sS'staunchly'
p5429
g10
sS'idolized'
p5430
g10
sS'endorsing'
p5431
g10
sS'limitation'
p5432
g3
sS'attacks'
p5433
g3
sS'choke'
p5434
g3
sS'trustworthy'
p5435
g10
sS'undocumented'
p5436
g3
sS'misleading'
p5437
g3
sS'genocide'
p5438
g3
sS'blabber'
p5439
g3
sS'primitive'
p5440
g3
sS'anxiousness'
p5441
g3
sS'low-cost'
p5442
g10
sS'lavishly'
p5443
g10
sS'obscene'
p5444
g3
sS'uncontrolled'
p5445
g3
sS'accomplishments'
p5446
g10
sS'over-acted'
p5447
g3
sS'awe'
p5448
g10
sS'disinterest'
p5449
g3
sS'lags'
p5450
g3
sS'stuck'
p5451
g3
sS'gimmicked'
p5452
g3
sS'simplistically'
p5453
g3
sS'questionable'
p5454
g3
sS'intolerance'
p5455
g3
sS'abysmal'
p5456
g3
sS'heal'
p5457
g10
sS'deny'
p5458
g3
sS'heinous'
p5459
g3
sS'illuminating'
p5460
g10
sS'ultra-hardline'
p5461
g3
sS'satisfactorily'
p5462
g10
sS'wobbles'
p5463
g3
sS'humiliate'
p5464
g3
sS'admiration'
p5465
g10
sS'heartwarming'
p5466
g10
sS'bargain'
p5467
g10
sS'ruined'
p5468
g3
sS'adore'
p5469
g10
sS'panicky'
p5470
g3
sS'impropriety'
p5471
g3
sS'fury'
p5472
g3
sS'sinful'
p5473
g3
sS'suspicions'
p5474
g3
sS'ill-natured'
p5475
g3
sS'despotism'
p5476
g3
sS'acclaimed'
p5477
g10
sS'believable'
p5478
g10
sS'annoying'
p5479
g3
sS'injurious'
p5480
g3
sS'blatantly'
p5481
g3
sS'radically'
p5482
g3
sS'upheaval'
p5483
g3
sS'faithful'
p5484
g10
sS'unrivaled'
p5485
g10
sS'stagnant'
p5486
g3
sS'complicit'
p5487
g3
sS'soundly'
p5488
g10
sS'erosion'
p5489
g3
sS'squeals'
p5490
g3
sS'subsidize'
p5491
g10
sS'miscellaneous'
p5492
g3
sS'perversity'
p5493
g3
sS'scorchingly'
p5494
g3
sS'scratchy'
p5495
g3
sS'faster'
p5496
g10
sS'whoooa'
p5497
g10
sS'intimacy'
p5498
g10
sS'backward'
p5499
g3
sS'premeditated'
p5500
g3
sS'hardheaded'
p5501
g3
sS'dispirit'
p5502
g3
sS'leads'
p5503
g10
sS'irrecoverablenesses'
p5504
g3
sS'remarkably'
p5505
g10
sS'rot'
p5506
g3
sS'empathize'
p5507
g10
sS'quash'
p5508
g3
sS'weakening'
p5509
g3
sS'outmoded'
p5510
g3
sS'pleases'
p5511
g10
sS'advantage'
p5512
g10
sS'exalted'
p5513
g10
sS'unavoidably'
p5514
g3
sS'unfamiliar'
p5515
g3
sS'sloppy'
p5516
g3
sS'untenable'
p5517
g3
sS'tanks'
p5518
g3
sS'cool'
p5519
g10
sS'incitement'
p5520
g3
sS'ruthlessness'
p5521
g3
sS'enthuse'
p5522
g10
sS'cloudy'
p5523
g3
sS'invidious'
p5524
g3
sS'encroach'
p5525
g3
sS'better-than-expected'
p5526
g10
sS'invader'
p5527
g3
sS'tougher'
p5528
g10
sS'obsolete'
p5529
g3
sS'slowed'
p5530
g3
sS'comforting'
p5531
g10
sS'irritated'
p5532
g3
sS'distaste'
p5533
g3
sS'stressful'
p5534
g3
sS'stately'
p5535
g10
sS'deluded'
p5536
g3
sS'cripples'
p5537
g3
sS'entertain'
p5538
g10
sS'crippled'
p5539
g3
sS'constructive'
p5540
g10
sS'standout'
p5541
g10
sS'healthy'
p5542
g10
sS'guilty'
p5543
g3
sS'law-abiding'
p5544
g10
sS'denunciation'
p5545
g3
sS'weird'
p5546
g3
sS'gorgeously'
p5547
g10
sS'winner'
p5548
g10
sS'humour'
p5549
g10
sS'problematic'
p5550
g3
sS'pessimistically'
p5551
g3
sS'wreak'
p5552
g3
sS'bribery'
p5553
g3
sS'paralyzed'
p5554
g3
sS'prompt'
p5555
g10
sS'smallish'
p5556
g3
sS'crisis'
p5557
g3
sS'sporty'
p5558
g10
sS'confounded'
p5559
g3
sS'rejuvenating'
p5560
g10
sS'ravage'
p5561
g3
sS'upheld'
p5562
g10
sS'gravely'
p5563
g3
sS'unwarranted'
p5564
g3
sS'dismay'
p5565
g3
sS'smudged'
p5566
g3
sS'bombastic'
p5567
g3
sS'dilly-dally'
p5568
g3
sS'demonized'
p5569
g3
sS'downhearted'
p5570
g3
sS'dismal'
p5571
g3
sS'smudges'
p5572
g3
sS'demonizes'
p5573
g3
sS'spoilage'
p5574
g3
sS'degradingly'
p5575
g3
sS'unruly'
p5576
g3
sS'batty'
p5577
g3
sS'unconditional'
p5578
g10
sS'geeky'
p5579
g10
sS'deservedly'
p5580
g10
sS'corrupted'
p5581
g3
sS'downfall'
p5582
g3
sS'righteousness'
p5583
g10
sS'inexperience'
p5584
g3
sS'critic'
p5585
g3
sS'provoke'
p5586
g3
sS'intelligible'
p5587
g10
sS'disliked'
p5588
g3
sS'eloquent'
p5589
g10
sS'meager'
p5590
g3
sS'infringements'
p5591
g3
sS'endorsement'
p5592
g10
sS'irascible'
p5593
g3
sS'unbelievable'
p5594
g3
sS'paramount'
p5595
g10
sS'irrational'
p5596
g3
sS'crashes'
p5597
g3
sS'fascist'
p5598
g3
sS'scoff'
p5599
g3
sS'distastefully'
p5600
g3
sS'crashed'
p5601
g3
sS'heartbreaking'
p5602
g3
sS'inconsequentially'
p5603
g3
sS'unbelievably'
p5604
g3
sS'disheartening'
p5605
g3
sS'awkward'
p5606
g3
sS'succeeded'
p5607
g10
sS'direness'
p5608
g3
sS'stupidly'
p5609
g3
sS'misbegotten'
p5610
g3
sS'infidels'
p5611
g3
sS'impartially'
p5612
g10
sS'refund'
p5613
g10
sS'accolades'
p5614
g10
sS'pre-eminent'
p5615
g10
sS'froze'
p5616
g3
sS'pugnacity'
p5617
g3
sS'paradoxically'
p5618
g3
sS'unsettlingly'
p5619
g3
sS'ghetto'
p5620
g3
sS'loophole'
p5621
g3
sS'lonely'
p5622
g3
sS'condescendingly'
p5623
g3
sS'devastated'
p5624
g3
sS'flareups'
p5625
g3
sS'qualified'
p5626
g10
sS'vexingly'
p5627
g3
sS'devastates'
p5628
g3
sS'stabilize'
p5629
g10
sS'realistic'
p5630
g10
sS'mesmerizingly'
p5631
g10
sS'finely'
p5632
g10
sS'subjection'
p5633
g3
sS'wearisome'
p5634
g3
sS'nettlesome'
p5635
g3
sS'ailment'
p5636
g3
sS'busts'
p5637
g3
sS'inopportune'
p5638
g3
sS'tumultuous'
p5639
g3
sS'obsession'
p5640
g10
sS'hysteric'
p5641
g3
sS'hiliarious'
p5642
g3
sS'infuriated'
p5643
g3
sS'inadequacy'
p5644
g3
sS'disgraced'
p5645
g3
sS'bugging'
p5646
g3
sS'unfriendly'
p5647
g3
sS'skillfully'
p5648
g10
sS'hobble'
p5649
g3
sS'nightmarish'
p5650
g3
sS'delude'
p5651
g3
sS'flare'
p5652
g3
sS'disillusionment'
p5653
g3
sS'impose'
p5654
g3
sS'gusto'
p5655
g10
sS'best-known'
p5656
g10
sS'brutalize'
p5657
g3
sS'discontinued'
p5658
g3
sS'feign'
p5659
g3
sS'simplifies'
p5660
g10
sS'incongruous'
p5661
g3
sS'awfully'
p5662
g3
sS'clumsy'
p5663
g3
sS'simplified'
p5664
g10
sS'tingling'
p5665
g3
sS'haggle'
p5666
g3
sS'fortuitous'
p5667
g10
sS'persecute'
p5668
g3
sS'unreachable'
p5669
g3
sS'hug'
p5670
g10
sS'hum'
p5671
g3
sS'indoctrinate'
p5672
g3
sS'hurtful'
p5673
g3
sS'debility'
p5674
g3
sS'stylized'
p5675
g10
sS'mawkishly'
p5676
g3
sS'ill-advised'
p5677
g3
sS'chintzy'
p5678
g3
sS'petrified'
p5679
g3
sS'bewitch'
p5680
g3
sS'unfortunately'
p5681
g3
sS'dirt-cheap'
p5682
g10
sS'diplomatic'
p5683
g10
sS'dissapointed'
p5684
g3
sS'poeticize'
p5685
g10
sS'dispensable'
p5686
g3
sS'pry'
p5687
g3
sS'prosperity'
p5688
g10
sS'astonishingly'
p5689
g10
sS'ideal'
p5690
g10
sS'fracture'
p5691
g3
sS'blunt'
p5692
g3
sS'commonplace'
p5693
g3
sS'selfinterested'
p5694
g3
sS'agilely'
p5695
g10
sS'impulsively'
p5696
g3
sS'betrayal'
p5697
g3
sS'clearer'
p5698
g10
sS'remunerate'
p5699
g10
sS'falls'
p5700
g3
sS'boiling'
p5701
g3
sS'cleared'
p5702
g10
sS'proud'
p5703
g10
sS'unwisely'
p5704
g3
sS'drastically'
p5705
g3
sS'cheat'
p5706
g3
sS'allegations'
p5707
g3
sS'hack'
p5708
g3
sS'painlessly'
p5709
g10
sS'hustler'
p5710
g3
sS'principled'
p5711
g10
sS'genius'
p5712
g10
sS'shimmer'
p5713
g3
sS'crime'
p5714
g3
sS'well-wishers'
p5715
g10
sS'stains'
p5716
g3
sS'fickle'
p5717
g3
sS'energy-saving'
p5718
g10
sS'deign'
p5719
g3
sS'luxuriant'
p5720
g10
sS'thankful'
p5721
g10
sS'heartfelt'
p5722
g10
sS'begging'
p5723
g3
sS'lighter'
p5724
g10
sS'hedge'
p5725
g3
sS'treachery'
p5726
g3
sS'cautionary'
p5727
g3
sS'freaking'
p5728
g3
sS'pinnacle'
p5729
g10
sS'outperform'
p5730
g10
sS'obliterate'
p5731
g3
sS'impolite'
p5732
g3
sS'joker'
p5733
g3
sS'barbaric'
p5734
g3
sS'invincible'
p5735
g10
sS'unlicensed'
p5736
g3
sS'imposing'
p5737
g3
sS'uneconomical'
p5738
g3
sS'slashing'
p5739
g3
sS'underpaid'
p5740
g3
sS'fails'
p5741
g3
sS'crooked'
p5742
g3
sS'belittled'
p5743
g3
sS'hiss'
p5744
g3
sS'simplifying'
p5745
g10
sS'ineloquently'
p5746
g3
sS'untrustworthy'
p5747
g3
sS'recourses'
p5748
g3
sS'unappealing'
p5749
g3
sS'rumours'
p5750
g3
sS'fearless'
p5751
g10
sS'self-serving'
p5752
g3
sS'disdainful'
p5753
g3
sS'floundering'
p5754
g3
sS'harshly'
p5755
g3
sS'indiscriminate'
p5756
g3
sS'realizable'
p5757
g10
sS'gimmicky'
p5758
g3
sS'successes'
p5759
g10
sS'murderously'
p5760
g3
sS'gimmicks'
p5761
g3
sS'quiet'
p5762
g10
sS'jitter'
p5763
g3
sS'provocation'
p5764
g3
sS'resentment'
p5765
g3
sS'bizarre'
p5766
g3
sS'skeletons'
p5767
g3
sS'runaway'
p5768
g3
sS'lame-duck'
p5769
g3
sS'stylishly'
p5770
g10
sS'craftly'
p5771
g3
sS'peaceful'
p5772
g10
sS'confessions'
p5773
g3
sS'enraptured'
p5774
g10
sS'toughest'
p5775
g10
sS'exasperate'
p5776
g3
sS'blessing'
p5777
g10
sS'stupendously'
p5778
g10
sS'mocking'
p5779
g3
sS'attentive'
p5780
g10
sS'irrelevant'
p5781
g3
sS'limits'
p5782
g3
sS'backache'
p5783
g3
sS'amiability'
p5784
g10
sS'sub-par'
p5785
g3
sS'contrive'
p5786
g3
sS'dissident'
p5787
g3
sS'inconsequently'
p5788
g3
sS'ironic'
p5789
g3
sS'treacherously'
p5790
g3
sS'resentful'
p5791
g3
sS'erroneously'
p5792
g3
sS'breathtakingly'
p5793
g10
sS'levity'
p5794
g10
sS'moronic'
p5795
g3
sS'willingly'
p5796
g10
sS'disadvantages'
p5797
g3
sS'applaud'
p5798
g10
sS'refusal'
p5799
g3
sS'lambast'
p5800
g3
sS'disadvantaged'
p5801
g3
sS'devoid'
p5802
g3
sS'delicate'
p5803
g10
sS'unqualified'
p5804
g3
sS'weep'
p5805
g3
sS'togetherness'
p5806
g10
sS'longing'
p5807
g3
sS'purposeful'
p5808
g10
sS'delectable'
p5809
g10
sS'magical'
p5810
g10
sS'melodramatic'
p5811
g3
sS'relief'
p5812
g10
sS'inability'
p5813
g3
sS'offensively'
p5814
g3
sS'flakey'
p5815
g3
sS'capriciousness'
p5816
g3
sS'desolate'
p5817
g3
sS'unconstitutional'
p5818
g3
sS'lavish'
p5819
g10
sS'violent'
p5820
g3
sS'pariah'
p5821
g3
sS'kill'
p5822
g3
sS'perilous'
p5823
g3
sS'blow'
p5824
g3
sS'dauntless'
p5825
g10
sS'bullshyt'
p5826
g3
sS'all-around'
p5827
g10
sS'dumbfounding'
p5828
g10
sS'rosy'
p5829
g10
sS'poised'
p5830
g10
sS'backbite'
p5831
g3
sS'disrupt'
p5832
g3
sS'peps'
p5833
g10
sS'subversively'
p5834
g3
sS'kills'
p5835
g3
sS'inordinate'
p5836
g3
sS'confined'
p5837
g3
sS'glitches'
p5838
g3
sS'standstill'
p5839
g3
sS'exquisitely'
p5840
g10
sS'oddly'
p5841
g3
sS'wrongful'
p5842
g3
sS'substandard'
p5843
g3
sS'well-received'
p5844
g10
sS'shunned'
p5845
g3
sS'shortcoming'
p5846
g3
sS'redeeming'
p5847
g10
sS'prolific'
p5848
g10
sS'renounce'
p5849
g3
sS'douchebag'
p5850
g3
sS'dauntingly'
p5851
g3
sS'slick'
p5852
g10
sS'fusty'
p5853
g3
sS'crueler'
p5854
g3
sS'overacted'
p5855
g3
sS'compulsion'
p5856
g3
sS'freed'
p5857
g10
sS'welcome'
p5858
g10
sS'convincing'
p5859
g10
sS'boisterous'
p5860
g3
sS'slaughter'
p5861
g3
sS'pricier'
p5862
g3
sS'prattle'
p5863
g3
sS'baffled'
p5864
g3
sS'subdued'
p5865
g3
sS'zealous'
p5866
g3
sS'jeer'
p5867
g3
sS'scornful'
p5868
g3
sS'disintegrate'
p5869
g3
sS'annoyances'
p5870
g3
sS'curses'
p5871
g3
sS'cursed'
p5872
g3
sS'calamities'
p5873
g3
sS'strictly'
p5874
g3
sS'racism'
p5875
g3
sS'strict'
p5876
g3
sS'racist'
p5877
g3
sS'dislocated'
p5878
g3
sS'gibe'
p5879
g3
sS'mischief'
p5880
g3
sS'shamelessly'
p5881
g3
sS'regard'
p5882
g10
sS'strenuous'
p5883
g3
sS'condemnable'
p5884
g3
sS'fabricate'
p5885
g3
sS'job-killing'
p5886
g3
sS'extermination'
p5887
g3
sS'merriness'
p5888
g10
sS'ineffectually'
p5889
g3
sS'self-interested'
p5890
g3
sS'sleazy'
p5891
g3
sS'creeping'
p5892
g3
sS'ruffian'
p5893
g3
sS'stiflingly'
p5894
g3
sS'grumpily'
p5895
g3
sS'cringed'
p5896
g3
sS'high-spirited'
p5897
g10
sS'fallaciousness'
p5898
g3
sS'accusingly'
p5899
g3
sS'spendy'
p5900
g3
sS'cringes'
p5901
g3
sS'incorrect'
p5902
g3
sS'abyss'
p5903
g3
sS'tetchily'
p5904
g3
sS'idiot'
p5905
g3
sS'loyal'
p5906
g10
sS'stumbles'
p5907
g3
sS'heathen'
p5908
g3
sS'starkly'
p5909
g3
sS'unneeded'
p5910
g3
sS'trash'
p5911
g3
sS'dismayed'
p5912
g3
sS'sufficient'
p5913
g10
sS'deviation'
p5914
g3
sS'brash'
p5915
g3
sS'meritorious'
p5916
g10
sS'conspiracies'
p5917
g3
sS'despoil'
p5918
g3
sS'courtly'
p5919
g10
sS'unresponsive'
p5920
g3
sS'dextrous'
p5921
g10
sS'uglier'
p5922
g3
sS'villianously'
p5923
g3
sS'disagreeing'
p5924
g3
sS'treason'
p5925
g3
sS'crumpled'
p5926
g3
sS'diss'
p5927
g3
sS'lack'
p5928
g3
sS'antagonize'
p5929
g3
sS'crumples'
p5930
g3
sS'defamations'
p5931
g3
sS'wanton'
p5932
g3
sS'catastrophe'
p5933
g3
sS'homage'
p5934
g10
sS'subjected'
p5935
g3
sS'extraneous'
p5936
g3
sS'revengeful'
p5937
g3
sS'indecently'
p5938
g3
sS'problem-solver'
p5939
g10
sS'worse'
p5940
g3
sS'equivocal'
p5941
g3
sS'infringement'
p5942
g3
sS'facetious'
p5943
g3
sS'fat'
p5944
g3
sS'inflammed'
p5945
g3
sS'admonition'
p5946
g3
sS'worst'
p5947
g3
sS'awful'
p5948
g3
sS'gainsay'
p5949
g3
sS'ranting'
p5950
g3
sS'fearful'
p5951
g3
sS'undone'
p5952
g3
sS'liars'
p5953
g3
sS'conflicted'
p5954
g3
sS'sue'
p5955
g3
sS'laughably'
p5956
g3
sS'advantageous'
p5957
g10
sS'whimper'
p5958
g3
sS'rascal'
p5959
g3
sS'musty'
p5960
g3
sS'crush'
p5961
g3
sS'faltered'
p5962
g3
sS'disillusions'
p5963
g3
sS'passiveness'
p5964
g3
sS'overstatement'
p5965
g3
sS'decrepitude'
p5966
g3
sS'hopelessness'
p5967
g3
sS'tiringly'
p5968
g3
sS'tragedy'
p5969
g3
sS'thrift'
p5970
g10
sS'horrifies'
p5971
g3
sS'misinterpret'
p5972
g3
sS'difficulty'
p5973
g3
sS'infringe'
p5974
g3
sS'horrified'
p5975
g3
sS'stiffness'
p5976
g3
sS'gleeful'
p5977
g10
sS'impolitic'
p5978
g3
sS'fearfully'
p5979
g3
sS'fatuously'
p5980
g3
sS'snub'
p5981
g3
sS'unthinkably'
p5982
g3
sS'faint'
p5983
g3
sS'tyrannically'
p5984
g3
sS'irritate'
p5985
g3
sS'affluence'
p5986
g10
sS'wretched'
p5987
g3
sS'mire'
p5988
g3
sS'stutter'
p5989
g3
sS'dissonantly'
p5990
g3
sS'disapprove'
p5991
g3
sS'hissed'
p5992
g3
sS'amputate'
p5993
g3
sS'nitpicking'
p5994
g3
sS'flak'
p5995
g3
sS'domineer'
p5996
g3
sS'discordance'
p5997
g3
sS'imprecisely'
p5998
g3
sS'irritations'
p5999
g3
sS'ineffectual'
p6000
g3
sS'perverts'
p6001
g3
sS'embarrassing'
p6002
g3
sS'challenging'
p6003
g3
sS'retardedness'
p6004
g3
sS'conspire'
p6005
g3
sS'coerce'
p6006
g3
sS'na\xef\xbf\xbdve'
p6007
g3
sS'dubiously'
p6008
g3
sS'allege'
p6009
g3
sS'insignificantly'
p6010
g3
sS'sloooooooooooooow'
p6011
g3
sS'acrimony'
p6012
g3
sS'breaking'
p6013
g3
sS'goad'
p6014
g3
sS'overbalance'
p6015
g3
sS'acerbate'
p6016
g3
sS'weaknesses'
p6017
g3
sS'preoccupy'
p6018
g3
sS'panoramic'
p6019
g10
sS'disable'
p6020
g3
sS'numb'
p6021
g3
sS'shortcomings'
p6022
g3
sS'obstinately'
p6023
g3
sS'shady'
p6024
g3
sS'groundless'
p6025
g3
sS'retaliate'
p6026
g3
sS'admonishment'
p6027
g3
sS'cruelties'
p6028
g3
sS'outrages'
p6029
g3
sS'indebted'
p6030
g10
sS'sloow'
p6031
g3
sS'disabled'
p6032
g3
sS'outraged'
p6033
g3
sS'quarrels'
p6034
g3
sS'flaunt'
p6035
g3
sS'disagreed'
p6036
g3
sS'jollify'
p6037
g10
sS'temptingly'
p6038
g10
sS'susceptible'
p6039
g3
sS'prodigy'
p6040
g10
sS'harmless'
p6041
g10
sS'disagrees'
p6042
g3
sS'ebulliently'
p6043
g10
sS'fallaciously'
p6044
g3
sS'generously'
p6045
g10
sS'brutally'
p6046
g3
sS'belittle'
p6047
g3
sS'adventurous'
p6048
g10
sS'impressive'
p6049
g10
sS'refresh'
p6050
g10
sS'inequality'
p6051
g3
sS'grandeur'
p6052
g10
sS'difficult'
p6053
g3
sS'intolerable'
p6054
g3
sS'steeply'
p6055
g3
sS'needless'
p6056
g3
sS'beneficent'
p6057
g10
sS'argumentative'
p6058
g3
sS'inflict'
p6059
g3
sS'dubitable'
p6060
g3
sS'inflated'
p6061
g3
sS'reverent'
p6062
g10
sS'reactionary'
p6063
g3
sS'foolproof'
p6064
g10
sS'disquiet'
p6065
g3
sS'bellicose'
p6066
g3
sS'disbeliever'
p6067
g3
sS'paradise'
p6068
g10
sS'congenial'
p6069
g10
sS'snappishly'
p6070
g3
sS'rock-stars'
p6071
g10
sS'cashbacks'
p6072
g10
sS'monotony'
p6073
g3
sS'blister'
p6074
g3
sS'stampede'
p6075
g3
sS'over-awe'
p6076
g3
sS'gape'
p6077
g3
sS'exaltedly'
p6078
g10
sS'prejudice'
p6079
g3
sS'threat'
p6080
g3
sS'fallen'
p6081
g3
sS'traped'
p6082
g3
sS'unhealthy'
p6083
g3
sS'radical'
p6084
g3
sS'fancy'
p6085
g10
sS'well-known'
p6086
g10
sS'defects'
p6087
g3
sS'soapy'
p6088
g3
sS'bland'
p6089
g3
sS'slower'
p6090
g3
sS'verifiable'
p6091
g10
sS'moan'
p6092
g3
sS'scathing'
p6093
g3
sS'leading'
p6094
g10
sS'2-faces'
p6095
g3
sS'comfy'
p6096
g10
sS'hangs'
p6097
g3
sS'doomsday'
p6098
g3
sS'steals'
p6099
g3
sS'second-class'
p6100
g3
sS'headache'
p6101
g3
sS'record-setting'
p6102
g10
sS'imperfect'
p6103
g3
sS'indecisively'
p6104
g3
sS'fidget'
p6105
g3
sS'versatility'
p6106
g10
sS'nagging'
p6107
g3
sS'outrageous'
p6108
g3
sS'stall'
p6109
g3
sS'risks'
p6110
g3
sS'insulted'
p6111
g3
sS'stale'
p6112
g3
sS'restful'
p6113
g10
sS'risky'
p6114
g3
sS'unrelenting'
p6115
g3
sS'cleaner'
p6116
g10
sS'scarcity'
p6117
g3
sS'outstanding'
p6118
g10
sS'suspicious'
p6119
g3
sS'decadent'
p6120
g3
sS'engulf'
p6121
g3
sS'vileness'
p6122
g3
sS'gall'
p6123
g3
sS'hopelessly'
p6124
g3
sS'interferes'
p6125
g3
sS'lackadaisical'
p6126
g3
sS'indiscernible'
p6127
g3
sS'instigator'
p6128
g3
sS'back-logged'
p6129
g3
sS'pillage'
p6130
g3
sS'inconvenience'
p6131
g3
sS'pique'
p6132
g3
sS'miserly'
p6133
g3
sS'excels'
p6134
g10
sS'prestige'
p6135
g10
sS'achievement'
p6136
g10
sS'depressingly'
p6137
g3
sS'hindrance'
p6138
g3
sS'liberate'
p6139
g10
sS'lying'
p6140
g3
sS'left-leaning'
p6141
g3
sS'niggle'
p6142
g3
sS'fond'
p6143
g10
sS'stumped'
p6144
g3
sS'inflexible'
p6145
g3
sS'felon'
p6146
g3
sS'virtue'
p6147
g10
sS'aggravate'
p6148
g3
sS'delinquent'
p6149
g3
sS'unrealistic'
p6150
g3
sS'cruelness'
p6151
g3
sS'grotesque'
p6152
g3
sS'penalty'
p6153
g3
sS'shamefulness'
p6154
g3
sS'repulsiveness'
p6155
g3
sS'gains'
p6156
g10
sS'babble'
p6157
g3
sS'avarice'
p6158
g3
sS'procrastination'
p6159
g3
sS'commiserate'
p6160
g3
sS'grievances'
p6161
g3
sS'appeal'
p6162
g10
sS'sustainable'
p6163
g10
sS'cringe'
p6164
g3
sS'relentless'
p6165
g3
sS'insensible'
p6166
g3
sS'loveliness'
p6167
g10
sS'stump'
p6168
g3
sS'martyrdom'
p6169
g3
sS'mischievously'
p6170
g3
sS'declines'
p6171
g3
sS'procrastinates'
p6172
g3
sS'dumb'
p6173
g3
sS'fat-cats'
p6174
g3
sS'cleverly'
p6175
g10
sS'sh*t'
p6176
g3
sS'threats'
p6177
g3
sS'blurt'
p6178
g3
sS'forlorn'
p6179
g3
sS'inefficacious'
p6180
g3
sS'beautifullly'
p6181
g10
sS'blurs'
p6182
g3
sS'degrading'
p6183
g3
sS'jaundiced'
p6184
g3
sS'downturn'
p6185
g3
sS'corruption'
p6186
g3
sS'betrayer'
p6187
g3
sS'counter-productive'
p6188
g3
sS'rapid'
p6189
g10
sS'opposition'
p6190
g3
sS'lyrical'
p6191
g10
sS'ignominy'
p6192
g3
sS'hesitant'
p6193
g3
sS'blissfully'
p6194
g10
sS'lustrous'
p6195
g10
sS'sloth'
p6196
g3
sS'distress'
p6197
g3
sS'sweet'
p6198
g10
sS'improper'
p6199
g3
sS'regretfully'
p6200
g3
sS'acrid'
p6201
g3
sS'distrusting'
p6202
g3
sS'simpler'
p6203
g10
sS'bolster'
p6204
g10
sS'startling'
p6205
g3
sS'complication'
p6206
g3
sS'stupendous'
p6207
g10
sS'overlook'
p6208
g3
sS'dud'
p6209
g3
sS'apprehensively'
p6210
g3
sS'whoa'
p6211
g10
sS'affectionate'
p6212
g10
sS'evildoer'
p6213
g3
sS'dropout'
p6214
g3
sS'imprudence'
p6215
g3
sS'swanky'
p6216
g10
sS'goodly'
p6217
g10
sS'well-mannered'
p6218
g10
sS'stolen'
p6219
g3
sS'frozen'
p6220
g3
sS'civility'
p6221
g10
sS'corrode'
p6222
g3
sS'mordant'
p6223
g3
sS'credence'
p6224
g10
sS'obtrusive'
p6225
g3
sS'rip'
p6226
g3
sS'disappointing'
p6227
g3
sS'ecstasy'
p6228
g10
sS'obstacle'
p6229
g3
sS'frantic'
p6230
g3
sS'anguish'
p6231
g3
sS'lengthy'
p6232
g3
sS'stimulates'
p6233
g10
sS'shirk'
p6234
g3
sS'skilled'
p6235
g10
sS'painless'
p6236
g10
sS'impede'
p6237
g3
sS'robust'
p6238
g10
sS'uneasily'
p6239
g3
sS'infiltrator'
p6240
g3
sS'cheer'
p6241
g10
sS'inspirational'
p6242
g10
sS'grievance'
p6243
g3
sS'altruistic'
p6244
g10
sS'competitive'
p6245
g10
sS'corrupting'
p6246
g3
sS'inactive'
p6247
g3
sS'vigilant'
p6248
g10
sS'gems'
p6249
g10
sS'illusions'
p6250
g3
sS'resourcefulness'
p6251
g10
sS'keenness'
p6252
g10
sS'erudite'
p6253
g10
sS'tormented'
p6254
g3
sS'dirtbag'
p6255
g3
sS'complaint'
p6256
g3
sS'cataclysmal'
p6257
g3
sS'loss'
p6258
g3
sS'advocate'
p6259
g10
sS'unlimited'
p6260
g10
sS'self-sufficiency'
p6261
g10
sS'smudging'
p6262
g3
sS'moody'
p6263
g3
sS'skeptical'
p6264
g3
sS'flabbergasted'
p6265
g3
sS'productive'
p6266
g10
sS'ignore'
p6267
g3
sS'uproar'
p6268
g3
sS'distrust'
p6269
g3
sS'unstable'
p6270
g3
sS'entice'
p6271
g10
sS'wieldy'
p6272
g10
sS'hallmark'
p6273
g10
sS'fucking'
p6274
g3
sS'embroil'
p6275
g3
sS'disinclined'
p6276
g3
sS'irreplaceable'
p6277
g10
sS'selfishness'
p6278
g3
sS'sprightly'
p6279
g10
sS'pros'
p6280
g10
sS'ill-mannered'
p6281
g3
sS'innovation'
p6282
g10
sS'apathetic'
p6283
g3
sS'jumpy'
p6284
g3
sS'refused'
p6285
g3
sS'zombie'
p6286
g3
sS'gracelessly'
p6287
g3
sS'refuses'
p6288
g3
sS'peevishly'
p6289
g3
sS'intense'
p6290
g3
sS'unconfirmed'
p6291
g3
sS'tortuous'
p6292
g3
sS'ordeal'
p6293
g3
sS'frightful'
p6294
g3
sS'stricken'
p6295
g3
sS'hatred'
p6296
g3
sS'complimentary'
p6297
g10
sS'bleeds'
p6298
g3
sS'youthful'
p6299
g10
sS'credible'
p6300
g10
sS'unnoticed'
p6301
g3
sS'heedless'
p6302
g3
sS'stench'
p6303
g3
sS'impressed'
p6304
g10
sS'smoothly'
p6305
g10
sS'lone'
p6306
g3
sS'fast'
p6307
g10
sS'destains'
p6308
g3
sS'impresses'
p6309
g10
sS'statuesque'
p6310
g10
sS'oddities'
p6311
g3
sS'mundane'
p6312
g3
sS'forlornly'
p6313
g3
sS'perplexing'
p6314
g3
sS'audacious'
p6315
g3
sS'reassurance'
p6316
g10
sS'usurp'
p6317
g3
sS'forbidding'
p6318
g3
sS'user-replaceable'
p6319
g10
sS'mystify'
p6320
g3
sS'patriot'
p6321
g10
sS'hideousness'
p6322
g3
sS'liberty'
p6323
g10
sS'full-blown'
p6324
g3
sS'fried'
p6325
g3
sS'freak'
p6326
g3
sS'worthwhile'
p6327
g10
sS'divisive'
p6328
g3
sS'warning'
p6329
g3
sS'disappoints'
p6330
g3
sS'lemon'
p6331
g3
sS'unjustifiably'
p6332
g3
sS'tentative'
p6333
g3
sS'evils'
p6334
g3
sS'inequities'
p6335
g3
sS'malicious'
p6336
g3
sS'seething'
p6337
g3
sS'defrauding'
p6338
g3
sS'unjustifiable'
p6339
g3
sS'mock'
p6340
g3
sS'nice'
p6341
g10
sS'smitten'
p6342
g10
sS'backbone'
p6343
g10
sS'problems'
p6344
g3
sS'helping'
p6345
g10
sS'inflame'
p6346
g3
sS'wrinkle'
p6347
g3
sS'rightful'
p6348
g10
sS'suffers'
p6349
g3
sS'happier'
p6350
g10
sS'vice'
p6351
g3
sS'impatient'
p6352
g3
sS'irksomenesses'
p6353
g3
sS'pervert'
p6354
g3
sS'resistance'
p6355
g3
sS'hellion'
p6356
g3
sS'misreading'
p6357
g3
sS'discordant'
p6358
g3
sS'worrisome'
p6359
g3
sS'rigidity'
p6360
g3
sS'deviously'
p6361
g3
sS'uphold'
p6362
g10
sS'hoodium'
p6363
g3
sS'dissidents'
p6364
g3
sS'obstinate'
p6365
g3
sS'stable'
p6366
g10
sS'barbarically'
p6367
g3
sS'breach'
p6368
g3
sS'blandish'
p6369
g3
sS'steadiest'
p6370
g10
sS'drop-outs'
p6371
g3
sS'disquieting'
p6372
g3
sS'spook'
p6373
g3
sS'incoherent'
p6374
g3
sS'fast-paced'
p6375
g10
sS'gullible'
p6376
g3
sS'tenderness'
p6377
g3
sS'jaw-dropping'
p6378
g10
sS'idealize'
p6379
g10
sS'rapturously'
p6380
g10
sS'outdo'
p6381
g10
sS'friendliness'
p6382
g10
sS'pleas'
p6383
g3
sS'hinder'
p6384
g3
sS'abominably'
p6385
g3
sS'chastise'
p6386
g3
sS'malice'
p6387
g3
sS'abominable'
p6388
g3
sS'unavailable'
p6389
g3
sS'outsmart'
p6390
g10
sS'concessions'
p6391
g3
sS'bearish'
p6392
g3
sS'relent'
p6393
g10
sS'cozy'
p6394
g10
sS'uncollectible'
p6395
g3
sS'insouciance'
p6396
g3
sS'sexy'
p6397
g10
sS'polution'
p6398
g3
sS'miser'
p6399
g3
sS'survivor'
p6400
g10
sS'distressed'
p6401
g3
sS'acridness'
p6402
g3
sS'chaste'
p6403
g10
sS'miscreant'
p6404
g3
sS'forbid'
p6405
g3
sS'confession'
p6406
g3
sS'improbably'
p6407
g3
sS'improbable'
p6408
g3
sS'droops'
p6409
g3
sS'doubtfully'
p6410
g3
sS'trump'
p6411
g10
sS'procrastinate'
p6412
g3
sS'scariest'
p6413
g3
sS'bitterly'
p6414
g3
sS'clever'
p6415
g10
sS'fiend'
p6416
g3
sS'impress'
p6417
g10
sS'infection'
p6418
g3
sS'sore'
p6419
g3
sS'virulence'
p6420
g3
sS'faultless'
p6421
g10
sS'posturing'
p6422
g3
sS'annoy'
p6423
g3
sS'disingenuous'
p6424
g3
sS'feebleminded'
p6425
g3
sS'recessionary'
p6426
g3
sS'aweful'
p6427
g3
sS'proprietary'
p6428
g3
sS'jobless'
p6429
g3
sS'overpayed'
p6430
g3
sS'earnestness'
p6431
g10
sS'intractable'
p6432
g3
sS'rapt'
p6433
g10
sS'condescend'
p6434
g3
sS'recklessly'
p6435
g3
sS'rape'
p6436
g3
sS'galls'
p6437
g3
sS'syndrome'
p6438
g3
sS'buoyant'
p6439
g10
sS'embarrassingly'
p6440
g3
sS'struggles'
p6441
g3
sS'patronize'
p6442
g3
sS'unquestionably'
p6443
g10
sS'danken'
p6444
g10
sS'undersized'
p6445
g3
sS'struggled'
p6446
g3
sS'panic'
p6447
g3
sS'sin'
p6448
g3
sS'rantingly'
p6449
g3
sS'tension'
p6450
g3
sS'puppets'
p6451
g3
sS'detests'
p6452
g3
sS'unwavering'
p6453
g10
sS'hazard'
p6454
g3
sS'impulsive'
p6455
g3
sS'discomfort'
p6456
g3
sS'abuse'
p6457
g3
sS'unnaturally'
p6458
g3
sS'cheaper'
p6459
g10
sS'arduous'
p6460
g3
sS'fortunately'
p6461
g10
sS'cheapen'
p6462
g3
sS'disrespecting'
p6463
g3
sS'irregularity'
p6464
g3
sS'violator'
p6465
g3
sS'contaminates'
p6466
g3
sS'unjustified'
p6467
g3
sS'beguile'
p6468
g3
sS'tyrant'
p6469
g3
sS'indignantly'
p6470
g3
sS'contaminated'
p6471
g3
sS'dismaying'
p6472
g3
sS'superior'
p6473
g10
sS'goading'
p6474
g3
sS'glee'
p6475
g10
sS'lech'
p6476
g3
sS'glisten'
p6477
g10
sS'inconsistencies'
p6478
g3
sS'distraction'
p6479
g3
sS'crash'
p6480
g3
sS'contention'
p6481
g3
sS'multi-purpose'
p6482
g10
sS'flout'
p6483
g3
sS'negligent'
p6484
g3
sS'impaired'
p6485
g3
sS'flee'
p6486
g3
sS'diabolic'
p6487
g3
sS'crass'
p6488
g3
sS'bewilderment'
p6489
g3
sS'measly'
p6490
g3
sS'profound'
p6491
g10
sS'enviable'
p6492
g10
sS'eased'
p6493
g10
sS'devilment'
p6494
g3
sS'unpredictable'
p6495
g3
sS'admonisher'
p6496
g3
sS'trap'
p6497
g3
sS'enviably'
p6498
g10
sS'dogmatic'
p6499
g3
sS'promise'
p6500
g10
sS'eases'
p6501
g10
sS'erratic'
p6502
g3
sS'tepid'
p6503
g3
sS'upliftingly'
p6504
g10
sS'lesser-known'
p6505
g3
sS'vehement'
p6506
g3
sS'disarray'
p6507
g3
sS'chaos'
p6508
g3
sS'impartial'
p6509
g10
sS'thrifty'
p6510
g10
sS'disapointed'
p6511
g3
sS'shortsightedness'
p6512
g3
sS'suffices'
p6513
g10
sS'integrated'
p6514
g10
sS'despairing'
p6515
g3
sS'promptly'
p6516
g10
sS'heartbreaker'
p6517
g3
sS'halfheartedly'
p6518
g3
sS'implode'
p6519
g3
sS'conflicts'
p6520
g3
sS'spookily'
p6521
g3
sS'overtake'
p6522
g10
sS'fascism'
p6523
g3
sS'feasible'
p6524
g10
sS'illicit'
p6525
g3
sS'feasibly'
p6526
g10
sS'barbarity'
p6527
g3
sS'uproot'
p6528
g3
sS'astutely'
p6529
g10
sS'insane'
p6530
g3
sS'undid'
p6531
g3
sS'bleakness'
p6532
g3
sS'felicitous'
p6533
g10
sS'listless'
p6534
g3
sS'hurted'
p6535
g3
sS'outperformed'
p6536
g10
sS'salutary'
p6537
g10
sS'droop'
p6538
g3
sS'unknown'
p6539
g3
sS'delusions'
p6540
g3
sS'misinformed'
p6541
g3
sS'misunderstood'
p6542
g3
sS'agility'
p6543
g10
sS'doomed'
p6544
g3
sS'shallow'
p6545
g3
sS'astounded'
p6546
g10
sS'bashed'
p6547
g3
sS'objectionable'
p6548
g3
sS'isolation'
p6549
g3
sS'anti-proliferation'
p6550
g3
sS'richer'
p6551
g10
sS'frugal'
p6552
g10
sS'squealing'
p6553
g3
sS'fastidiously'
p6554
g3
sS'amuse'
p6555
g10
sS'laughingstock'
p6556
g3
sS'woebegone'
p6557
g3
sS'splatter'
p6558
g3
sS'sincerity'
p6559
g10
sS'outstrip'
p6560
g10
sS'unbearable'
p6561
g3
sS'afraid'
p6562
g3
sS'hegemonism'
p6563
g3
sS'allergies'
p6564
g3
sS'boastful'
p6565
g3
sS'deprave'
p6566
g3
sS'clash'
p6567
g3
sS'harmful'
p6568
g3
sS'alarmed'
p6569
g3
sS'courageousness'
p6570
g10
sS'discourage'
p6571
g3
sS'refreshing'
p6572
g10
sS'jubilation'
p6573
g10
sS'appallingly'
p6574
g3
sS'dent'
p6575
g3
sS'nebulously'
p6576
g3
sS'contradictory'
p6577
g3
sS'inane'
p6578
g3
sS'sceptical'
p6579
g3
sS'banalize'
p6580
g3
sS'fear'
p6581
g3
sS'feat'
p6582
g10
sS'pleased'
p6583
g10
sS'craziness'
p6584
g3
sS'sinisterly'
p6585
g3
sS'indignant'
p6586
g3
sS'prosecute'
p6587
g3
sS'sued'
p6588
g3
sS'topple'
p6589
g3
sS'harmed'
p6590
g3
sS'dope'
p6591
g3
sS'massacre'
p6592
g3
sS'malaise'
p6593
g3
sS'sues'
p6594
g3
sS'swindle'
p6595
g3
sS'heretic'
p6596
g3
sS'deceiver'
p6597
g3
sS'affluent'
p6598
g10
sS'disingenuously'
p6599
g3
sS'thrive'
p6600
g10
sS'futuristic'
p6601
g10
sS'inventive'
p6602
g10
sS'humiliation'
p6603
g3
sS'expel'
p6604
g3
sS'despoiler'
p6605
g3
sS'unfairly'
p6606
g3
sS'confrontational'
p6607
g3
sS'luminous'
p6608
g10
sS'righteously'
p6609
g10
sS'worryingly'
p6610
g3
sS'invulnerable'
p6611
g10
sS'frustrates'
p6612
g3
sS'junky'
p6613
g3
sS'superb'
p6614
g10
sS'favor'
p6615
g10
sS'scathingly'
p6616
g3
sS'viper'
p6617
g3
sS'crude'
p6618
g3
sS'frustrated'
p6619
g3
sS'masterful'
p6620
g10
sS'douchbag'
p6621
g3
sS'joy'
p6622
g10
sS'embarrassment'
p6623
g3
sS'swank'
p6624
g10
sS'spoil'
p6625
g3
sS'proficiently'
p6626
g10
sS'stutters'
p6627
g3
sS'swift'
p6628
g10
sS'declining'
p6629
g3
sS'profanity'
p6630
g3
sS'valiantly'
p6631
g10
sS'clogged'
p6632
g3
sS'safely'
p6633
g10
sS'unconvincing'
p6634
g3
sS'unclear'
p6635
g3
sS'narrower'
p6636
g3
sS'mania'
p6637
g3
sS'respect'
p6638
g10
sS'unhappiness'
p6639
g3
sS'propitiously'
p6640
g10
sS'decent'
p6641
g10
sS'impetuously'
p6642
g3
sS'bewildering'
p6643
g3
sS'uproarous'
p6644
g3
sS'divinely'
p6645
g10
sS'f**k'
p6646
g3
sS'butchery'
p6647
g3
sS'jaded'
p6648
g3
sS'injustices'
p6649
g3
sS'crappy'
p6650
g3
sS'overture'
p6651
g10
sS'dearth'
p6652
g3
sS'unmoved'
p6653
g3
sS'overturn'
p6654
g3
sS'wily'
p6655
g3
sS'wilt'
p6656
g3
sS'irate'
p6657
g3
sS'stunning'
p6658
g10
sS'dead-cheap'
p6659
g10
sS'wild'
p6660
g3
sS'unworkable'
p6661
g3
sS'drips'
p6662
g3
sS'encouragement'
p6663
g10
sS'draining'
p6664
g3
sS'thug'
p6665
g3
sS'whore'
p6666
g3
sS'unfaithfully'
p6667
g3
sS'maddening'
p6668
g3
sS'adverse'
p6669
g3
sS'unity'
p6670
g10
sS'exuberance'
p6671
g10
sS'merciful'
p6672
g10
sS'privileged'
p6673
g10
sS'disorient'
p6674
g3
sS'last-ditch'
p6675
g3
sS'prickles'
p6676
g3
sS'slave'
p6677
g3
sS'disagree'
p6678
g3
sS'outcast'
p6679
g3
sS'amicability'
p6680
g10
sS'acerbically'
p6681
g3
sS'gutter'
p6682
g3
sS'sueing'
p6683
g3
sS'catastrophically'
p6684
g3
sS'excessive'
p6685
g3
sS'back-woods'
p6686
g3
sS'untested'
p6687
g3
sS'happiness'
p6688
g10
sS'temerity'
p6689
g3
sS'disturbance'
p6690
g3
sS'avidly'
p6691
g10
sS'morbidly'
p6692
g3
sS'attractive'
p6693
g10
sS'earnestly'
p6694
g10
sS'uncompromisingly'
p6695
g3
sS'pampers'
p6696
g10
sS'virulently'
p6697
g3
sS'captivating'
p6698
g10
sS'myth'
p6699
g3
sS'frighteningly'
p6700
g3
sS'misconceptions'
p6701
g3
sS'idyllic'
p6702
g10
sS'miraculousness'
p6703
g10
sS'irrecoverableness'
p6704
g3
sS'racists'
p6705
g3
sS'incredibly'
p6706
g10
sS'helpful'
p6707
g10
sS'loser'
p6708
g3
sS'loses'
p6709
g3
sS'incendiary'
p6710
g3
sS'tauntingly'
p6711
g3
sS'wonders'
p6712
g10
sS'razor-sharp'
p6713
g10
sS'exceed'
p6714
g10
sS'retractable'
p6715
g10
sS'shabby'
p6716
g3
sS'tumble'
p6717
g3
sS'scared'
p6718
g3
sS'flagrant'
p6719
g3
sS'illegally'
p6720
g3
sS'blunders'
p6721
g3
sS'lead'
p6722
g10
sS'leak'
p6723
g3
sS'breakthroughs'
p6724
g10
sS'lean'
p6725
g10
sS'thank'
p6726
g10
sS'impolitely'
p6727
g3
sS'patiently'
p6728
g10
sS'rip-off'
p6729
g3
sS'ripped'
p6730
g3
sS'murderer'
p6731
g3
sS'slooow'
p6732
g3
sS'slur'
p6733
g3
sS'inescapable'
p6734
g3
sS'slut'
p6735
g3
sS'asinine'
p6736
g3
sS'hostage'
p6737
g3
sS'slug'
p6738
g3
sS'stereotypically'
p6739
g3
sS'accessable'
p6740
g10
sS'fatally'
p6741
g3
sS'polished'
p6742
g10
sS'unsustainable'
p6743
g3
sS'hotcake'
p6744
g10
sS'loner'
p6745
g3
sS'champ'
p6746
g10
sS'lawful'
p6747
g10
sS'negate'
p6748
g3
sS'unproductive'
p6749
g3
sS'brilliantly'
p6750
g10
sS'agonizing'
p6751
g3
sS'noxious'
p6752
g3
sS'resound'
p6753
g10
sS'stymied'
p6754
g3
sS'alienated'
p6755
g3
sS'nourish'
p6756
g10
sS'brashness'
p6757
g3
sS'assail'
p6758
g3
sS'instructive'
p6759
g10
sS'protesting'
p6760
g3
sS'embolden'
p6761
g10
sS'inconsequent'
p6762
g3
sS'distract'
p6763
g3
sS'windfall'
p6764
g10
sS'bewail'
p6765
g3
sS'eagerness'
p6766
g10
sS'horrific'
p6767
g3
sS'intimidating'
p6768
g3
sS'inadequate'
p6769
g3
sS'meaningless'
p6770
g3
sS'gnawing'
p6771
g3
sS'worthiness'
p6772
g10
sS'troublesomely'
p6773
g3
sS'goodness'
p6774
g10
sS'incredible'
p6775
g10
sS'demonize'
p6776
g3
sS'immobilized'
p6777
g3
sS'boom'
p6778
g10
sS'sick'
p6779
g3
sS'cutthroat'
p6780
g3
sS'long-time'
p6781
g3
sS'hysteria'
p6782
g3
sS'junk'
p6783
g3
sS'nourishment'
p6784
g10
sS'frustrate'
p6785
g3
sS'squeak'
p6786
g3
sS'squeal'
p6787
g3
sS'extort'
p6788
g3
sS'sass'
p6789
g3
sS'pugnaciously'
p6790
g3
s.